
BASIC_M128_UARTlib.elf:     file format elf32-avr

Sections:
Idx Name          Size      VMA       LMA       File off  Algn
  0 .data         0000004c  00800100  00000c94  00000d28  2**0
                  CONTENTS, ALLOC, LOAD, DATA
  1 .text         00000c94  00000000  00000000  00000094  2**1
                  CONTENTS, ALLOC, LOAD, READONLY, CODE
  2 .bss          0000016c  0080014c  0080014c  00000d74  2**0
                  ALLOC
  3 .comment      00000030  00000000  00000000  00000d74  2**0
                  CONTENTS, READONLY
  4 .note.gnu.avr.deviceinfo 00000040  00000000  00000000  00000da4  2**2
                  CONTENTS, READONLY
  5 .debug_aranges 00000148  00000000  00000000  00000de4  2**0
                  CONTENTS, READONLY, DEBUGGING
  6 .debug_info   0000270c  00000000  00000000  00000f2c  2**0
                  CONTENTS, READONLY, DEBUGGING
  7 .debug_abbrev 00000b8a  00000000  00000000  00003638  2**0
                  CONTENTS, READONLY, DEBUGGING
  8 .debug_line   0000140e  00000000  00000000  000041c2  2**0
                  CONTENTS, READONLY, DEBUGGING
  9 .debug_frame  00000464  00000000  00000000  000055d0  2**2
                  CONTENTS, READONLY, DEBUGGING
 10 .debug_str    00000db1  00000000  00000000  00005a34  2**0
                  CONTENTS, READONLY, DEBUGGING
 11 .debug_loc    000010c2  00000000  00000000  000067e5  2**0
                  CONTENTS, READONLY, DEBUGGING
 12 .debug_ranges 00000100  00000000  00000000  000078a7  2**0
                  CONTENTS, READONLY, DEBUGGING

Disassembly of section .text:

00000000 <__vectors>:
   0:	45 c0       	rjmp	.+138    	; 0x8c <__ctors_end>
   2:	00 00       	nop
   4:	60 c0       	rjmp	.+192    	; 0xc6 <__bad_interrupt>
   6:	00 00       	nop
   8:	5e c0       	rjmp	.+188    	; 0xc6 <__bad_interrupt>
   a:	00 00       	nop
   c:	5c c0       	rjmp	.+184    	; 0xc6 <__bad_interrupt>
   e:	00 00       	nop
  10:	5a c0       	rjmp	.+180    	; 0xc6 <__bad_interrupt>
  12:	00 00       	nop
  14:	22 c1       	rjmp	.+580    	; 0x25a <__vector_5>
  16:	00 00       	nop
  18:	37 c1       	rjmp	.+622    	; 0x288 <__vector_6>
  1a:	00 00       	nop
  1c:	54 c0       	rjmp	.+168    	; 0xc6 <__bad_interrupt>
  1e:	00 00       	nop
  20:	52 c0       	rjmp	.+164    	; 0xc6 <__bad_interrupt>
  22:	00 00       	nop
  24:	bf c1       	rjmp	.+894    	; 0x3a4 <__vector_9>
  26:	00 00       	nop
  28:	4e c0       	rjmp	.+156    	; 0xc6 <__bad_interrupt>
  2a:	00 00       	nop
  2c:	4c c0       	rjmp	.+152    	; 0xc6 <__bad_interrupt>
  2e:	00 00       	nop
  30:	3b c1       	rjmp	.+630    	; 0x2a8 <__vector_12>
  32:	00 00       	nop
  34:	48 c0       	rjmp	.+144    	; 0xc6 <__bad_interrupt>
  36:	00 00       	nop
  38:	46 c0       	rjmp	.+140    	; 0xc6 <__bad_interrupt>
  3a:	00 00       	nop
  3c:	44 c0       	rjmp	.+136    	; 0xc6 <__bad_interrupt>
  3e:	00 00       	nop
  40:	42 c0       	rjmp	.+132    	; 0xc6 <__bad_interrupt>
  42:	00 00       	nop
  44:	40 c0       	rjmp	.+128    	; 0xc6 <__bad_interrupt>
  46:	00 00       	nop
  48:	d2 c2       	rjmp	.+1444   	; 0x5ee <__vector_18>
  4a:	00 00       	nop
  4c:	4e c2       	rjmp	.+1180   	; 0x4ea <__vector_19>
  4e:	00 00       	nop
  50:	8c c2       	rjmp	.+1304   	; 0x56a <__vector_20>
  52:	00 00       	nop
  54:	38 c0       	rjmp	.+112    	; 0xc6 <__bad_interrupt>
  56:	00 00       	nop
  58:	36 c0       	rjmp	.+108    	; 0xc6 <__bad_interrupt>
  5a:	00 00       	nop
  5c:	34 c0       	rjmp	.+104    	; 0xc6 <__bad_interrupt>
  5e:	00 00       	nop
  60:	32 c0       	rjmp	.+100    	; 0xc6 <__bad_interrupt>
  62:	00 00       	nop
  64:	30 c0       	rjmp	.+96     	; 0xc6 <__bad_interrupt>
  66:	00 00       	nop
  68:	2e c0       	rjmp	.+92     	; 0xc6 <__bad_interrupt>
  6a:	00 00       	nop
  6c:	2c c0       	rjmp	.+88     	; 0xc6 <__bad_interrupt>
  6e:	00 00       	nop
  70:	2a c0       	rjmp	.+84     	; 0xc6 <__bad_interrupt>
  72:	00 00       	nop
  74:	28 c0       	rjmp	.+80     	; 0xc6 <__bad_interrupt>
  76:	00 00       	nop
  78:	f3 c3       	rjmp	.+2022   	; 0x860 <__vector_30>
  7a:	00 00       	nop
  7c:	6c c3       	rjmp	.+1752   	; 0x756 <__vector_31>
  7e:	00 00       	nop
  80:	ad c3       	rjmp	.+1882   	; 0x7dc <__vector_32>
  82:	00 00       	nop
  84:	20 c0       	rjmp	.+64     	; 0xc6 <__bad_interrupt>
  86:	00 00       	nop
  88:	1e c0       	rjmp	.+60     	; 0xc6 <__bad_interrupt>
	...

0000008c <__ctors_end>:
  8c:	11 24       	eor	r1, r1
  8e:	1f be       	out	0x3f, r1	; 63
  90:	cf ef       	ldi	r28, 0xFF	; 255
  92:	d0 e1       	ldi	r29, 0x10	; 16
  94:	de bf       	out	0x3e, r29	; 62
  96:	cd bf       	out	0x3d, r28	; 61

00000098 <__do_copy_data>:
  98:	11 e0       	ldi	r17, 0x01	; 1
  9a:	a0 e0       	ldi	r26, 0x00	; 0
  9c:	b1 e0       	ldi	r27, 0x01	; 1
  9e:	e4 e9       	ldi	r30, 0x94	; 148
  a0:	fc e0       	ldi	r31, 0x0C	; 12
  a2:	00 e0       	ldi	r16, 0x00	; 0
  a4:	0b bf       	out	0x3b, r16	; 59
  a6:	02 c0       	rjmp	.+4      	; 0xac <__do_copy_data+0x14>
  a8:	07 90       	elpm	r0, Z+
  aa:	0d 92       	st	X+, r0
  ac:	ac 34       	cpi	r26, 0x4C	; 76
  ae:	b1 07       	cpc	r27, r17
  b0:	d9 f7       	brne	.-10     	; 0xa8 <__do_copy_data+0x10>

000000b2 <__do_clear_bss>:
  b2:	22 e0       	ldi	r18, 0x02	; 2
  b4:	ac e4       	ldi	r26, 0x4C	; 76
  b6:	b1 e0       	ldi	r27, 0x01	; 1
  b8:	01 c0       	rjmp	.+2      	; 0xbc <.do_clear_bss_start>

000000ba <.do_clear_bss_loop>:
  ba:	1d 92       	st	X+, r1

000000bc <.do_clear_bss_start>:
  bc:	a8 3b       	cpi	r26, 0xB8	; 184
  be:	b2 07       	cpc	r27, r18
  c0:	e1 f7       	brne	.-8      	; 0xba <.do_clear_bss_loop>
  c2:	02 d0       	rcall	.+4      	; 0xc8 <main>
  c4:	e5 c5       	rjmp	.+3018   	; 0xc90 <_exit>

000000c6 <__bad_interrupt>:
  c6:	9c cf       	rjmp	.-200    	; 0x0 <__vectors>

000000c8 <main>:
char str[3];
bool flag = true;

int main(void)
{
	mainCycleCount = 0;
  c8:	10 92 4f 01 	sts	0x014F, r1	; 0x80014f <mainCycleCount+0x1>
  cc:	10 92 4e 01 	sts	0x014E, r1	; 0x80014e <mainCycleCount>

	//Initialize MCU
	init_devices();
  d0:	27 d1       	rcall	.+590    	; 0x320 <init_devices>

	//Print reset source.
	if(MCUCSR & 0x01)
  d2:	04 b6       	in	r0, 0x34	; 52
  d4:	00 fe       	sbrs	r0, 0
  d6:	06 c0       	rjmp	.+12     	; 0xe4 <main+0x1c>
	uart1_Transmite("\n\rPOWER ON!",11, true);
  d8:	41 e0       	ldi	r20, 0x01	; 1
  da:	6b e0       	ldi	r22, 0x0B	; 11
  dc:	70 e0       	ldi	r23, 0x00	; 0
  de:	83 e0       	ldi	r24, 0x03	; 3
  e0:	91 e0       	ldi	r25, 0x01	; 1
  e2:	68 d4       	rcall	.+2256   	; 0x9b4 <uart1_Transmite>
	WDR();
  e4:	a8 95       	wdr
	if(MCUCSR & 0x02)
  e6:	04 b6       	in	r0, 0x34	; 52
  e8:	01 fe       	sbrs	r0, 1
  ea:	06 c0       	rjmp	.+12     	; 0xf8 <main+0x30>
	uart1_Transmite("\n\rEXTERNAL!",11, true);
  ec:	41 e0       	ldi	r20, 0x01	; 1
  ee:	6b e0       	ldi	r22, 0x0B	; 11
  f0:	70 e0       	ldi	r23, 0x00	; 0
  f2:	8f e0       	ldi	r24, 0x0F	; 15
  f4:	91 e0       	ldi	r25, 0x01	; 1
  f6:	5e d4       	rcall	.+2236   	; 0x9b4 <uart1_Transmite>
	WDR();
  f8:	a8 95       	wdr
	if(MCUCSR & 0x04)
  fa:	04 b6       	in	r0, 0x34	; 52
  fc:	02 fe       	sbrs	r0, 2
  fe:	06 c0       	rjmp	.+12     	; 0x10c <main+0x44>
	uart1_Transmite("\n\rBROUN OUT!",12, true);
 100:	41 e0       	ldi	r20, 0x01	; 1
 102:	6c e0       	ldi	r22, 0x0C	; 12
 104:	70 e0       	ldi	r23, 0x00	; 0
 106:	8b e1       	ldi	r24, 0x1B	; 27
 108:	91 e0       	ldi	r25, 0x01	; 1
 10a:	54 d4       	rcall	.+2216   	; 0x9b4 <uart1_Transmite>
	WDR();
 10c:	a8 95       	wdr
	if(MCUCSR & 0x08)
 10e:	04 b6       	in	r0, 0x34	; 52
 110:	03 fe       	sbrs	r0, 3
 112:	06 c0       	rjmp	.+12     	; 0x120 <main+0x58>
	uart1_Transmite("\n\rWATCH DOG!",12, true);
 114:	41 e0       	ldi	r20, 0x01	; 1
 116:	6c e0       	ldi	r22, 0x0C	; 12
 118:	70 e0       	ldi	r23, 0x00	; 0
 11a:	88 e2       	ldi	r24, 0x28	; 40
 11c:	91 e0       	ldi	r25, 0x01	; 1
 11e:	4a d4       	rcall	.+2196   	; 0x9b4 <uart1_Transmite>
	WDR();
 120:	a8 95       	wdr
	if(MCUCSR & 0x10)
 122:	04 b6       	in	r0, 0x34	; 52
 124:	04 fe       	sbrs	r0, 4
 126:	06 c0       	rjmp	.+12     	; 0x134 <main+0x6c>
	uart1_Transmite("\n\rJTAG!",7, true);
 128:	41 e0       	ldi	r20, 0x01	; 1
 12a:	67 e0       	ldi	r22, 0x07	; 7
 12c:	70 e0       	ldi	r23, 0x00	; 0
 12e:	85 e3       	ldi	r24, 0x35	; 53
 130:	91 e0       	ldi	r25, 0x01	; 1
 132:	40 d4       	rcall	.+2176   	; 0x9b4 <uart1_Transmite>
	WDR();
	uart1_Transmite("\n\r",2, true);
 134:	a8 95       	wdr
 136:	41 e0       	ldi	r20, 0x01	; 1
 138:	62 e0       	ldi	r22, 0x02	; 2
 13a:	70 e0       	ldi	r23, 0x00	; 0
 13c:	8d e3       	ldi	r24, 0x3D	; 61
 13e:	91 e0       	ldi	r25, 0x01	; 1
 140:	39 d4       	rcall	.+2162   	; 0x9b4 <uart1_Transmite>
	MCUCSR = 0;
 142:	14 be       	out	0x34, r1	; 52

	uart1_bReceptioneaza = false;
 144:	10 92 27 02 	sts	0x0227, r1	; 0x800227 <uart1_bReceptioneaza>

	// Initializare porturi LED-uri
	DDRB  = 0xFF;
 148:	8f ef       	ldi	r24, 0xFF	; 255
 14a:	87 bb       	out	0x17, r24	; 23
	PORTB = 0x00;
 14c:	18 ba       	out	0x18, r1	; 24
	// Initializare porturi Butoane
	DDRE  = (0<<DDRE4) | (0<<DDRE5) | (0<<DDRE6);
 14e:	12 b8       	out	0x02, r1	; 2
	PORTE = (1<<PORTE4) | (1<<PORTE5) | (1<<PORTE6);
 150:	90 e7       	ldi	r25, 0x70	; 112
 152:	93 b9       	out	0x03, r25	; 3
	// Setare pin intrerupere
	EICRB = (1<<ISC41) | (0<<ISC40) | (1<<ISC51) | (0<<ISC50) | (1<<ISC61) | (0<<ISC60);
 154:	2a e2       	ldi	r18, 0x2A	; 42
 156:	2a bf       	out	0x3a, r18	; 58
	EIMSK = (1<<INT4) | (1<<INT5) |(1<<INT6);
 158:	99 bf       	out	0x39, r25	; 57
	

	
	TCCR1A = (0<<WGM11) | (0<<WGM10); //set mod CTC
 15a:	1f bc       	out	0x2f, r1	; 47
	TCCR1B = (0<<WGM13) | (1<<WGM12) | (0<<CS12) | (0<<CS11) | (0<<CS10); // 256
 15c:	98 e0       	ldi	r25, 0x08	; 8
 15e:	9e bd       	out	0x2e, r25	; 46
	TCNT1 = 0;				
 160:	1d bc       	out	0x2d, r1	; 45
 162:	1c bc       	out	0x2c, r1	; 44
	OCR1A = 28800;			//1s
 164:	20 e8       	ldi	r18, 0x80	; 128
 166:	30 e7       	ldi	r19, 0x70	; 112
 168:	3b bd       	out	0x2b, r19	; 43
 16a:	2a bd       	out	0x2a, r18	; 42
	TIMSK = (1<<OCIE1A);
 16c:	20 e1       	ldi	r18, 0x10	; 16
 16e:	27 bf       	out	0x37, r18	; 55
	
	TCCR0 = (1<<WGM01) | (0<<WGM00)| (0<<CS02) | (0<<CS01) | (0<<CS00);
 170:	93 bf       	out	0x33, r25	; 51
	TCNT0 = 0;
 172:	12 be       	out	0x32, r1	; 50
	OCR0 = 255;
 174:	81 bf       	out	0x31, r24	; 49
	TIMSK |= (1<<OCIE0);
 176:	87 b7       	in	r24, 0x37	; 55
 178:	82 60       	ori	r24, 0x02	; 2
 17a:	87 bf       	out	0x37, r24	; 55
	
	sei();
 17c:	78 94       	sei

	
	do
	{
		//Reset watchdog to prevent a reset
		wdt_reset();
 17e:	a8 95       	wdr
		
		//If there is no pending UART operation start listening
		if(!uart1_bReceptioneaza && !uart1_bTransmite && !uart1_bStareNeprocesata)
 180:	80 91 27 02 	lds	r24, 0x0227	; 0x800227 <uart1_bReceptioneaza>
 184:	81 11       	cpse	r24, r1
 186:	10 c0       	rjmp	.+32     	; 0x1a8 <main+0xe0>
 188:	80 91 0f 02 	lds	r24, 0x020F	; 0x80020f <uart1_bTransmite>
 18c:	81 11       	cpse	r24, r1
 18e:	0c c0       	rjmp	.+24     	; 0x1a8 <main+0xe0>
 190:	80 91 ff 01 	lds	r24, 0x01FF	; 0x8001ff <uart1_bStareNeprocesata>
 194:	81 11       	cpse	r24, r1
 196:	08 c0       	rjmp	.+16     	; 0x1a8 <main+0xe0>
			//is received (to prevent buffer over flow)
			//Received data is stored in the snTelegramaRx input buffer.
			//The input buffer is reset (index set to 0) before Rx is initiated
			//Once the terminal char is received, receiving further characters
			//is blocked. Any other chars will be discarded
			uart1_ReceptieTermTX(snTelegramaRx, RX_TERM, L_BUF_RX, true, true);
 198:	01 e0       	ldi	r16, 0x01	; 1
 19a:	21 e0       	ldi	r18, 0x01	; 1
 19c:	40 e8       	ldi	r20, 0x80	; 128
 19e:	50 e0       	ldi	r21, 0x00	; 0
 1a0:	6d e0       	ldi	r22, 0x0D	; 13
 1a2:	89 e5       	ldi	r24, 0x59	; 89
 1a4:	91 e0       	ldi	r25, 0x01	; 1

		
		//Periodically evaluate the status of a message Rx
		//Checking the Rx complete condition in a non-ISR function is meant to keep
		//the ISR as short as possible.
		uart1_ReceptieOK();
 1a6:	fe d4       	rcall	.+2556   	; 0xba4 <uart1_ReceptieTermTX>
 1a8:	08 d4       	rcall	.+2064   	; 0x9ba <uart1_ReceptieOK>
		wdt_reset();
 1aa:	a8 95       	wdr

		//Check if the UART unprocessed flag has been set
		if(uart1_bStareNeprocesata)
 1ac:	80 91 ff 01 	lds	r24, 0x01FF	; 0x8001ff <uart1_bStareNeprocesata>
 1b0:	88 23       	and	r24, r24
 1b2:	09 f4       	brne	.+2      	; 0x1b6 <main+0xee>
 1b4:	3d c0       	rjmp	.+122    	; 0x230 <main+0x168>
		{
			//An TxOK, RxOK, Timeout of BufferLimit condition has been detected
			//We don't test for timeout as we have configured the UART in slave mode

			if(uart1_bRXBufferLimit)
 1b6:	80 91 57 01 	lds	r24, 0x0157	; 0x800157 <uart1_bRXBufferLimit>
 1ba:	88 23       	and	r24, r24
 1bc:	69 f0       	breq	.+26     	; 0x1d8 <main+0x110>
			{
				//ToDo: Do some error processing for buffer limit.
				//Reset the uart flags
				uart1_bReceptioneaza = false;
 1be:	10 92 27 02 	sts	0x0227, r1	; 0x800227 <uart1_bReceptioneaza>
				uart1_bRXBufferLimit = false;
 1c2:	10 92 57 01 	sts	0x0157, r1	; 0x800157 <uart1_bRXBufferLimit>
				uart1_nContorRX = 0;
 1c6:	10 92 01 02 	sts	0x0201, r1	; 0x800201 <uart1_nContorRX+0x1>
 1ca:	10 92 00 02 	sts	0x0200, r1	; 0x800200 <uart1_nContorRX>
				uart1_bStareNeprocesata = false;
 1ce:	10 92 ff 01 	sts	0x01FF, r1	; 0x8001ff <uart1_bStareNeprocesata>
				uart1_bRxOK = false;
 1d2:	10 92 0c 02 	sts	0x020C, r1	; 0x80020c <uart1_bRxOK>
				wdt_reset();
 1d6:	a8 95       	wdr
			}
			
			if(uart1_bRxOK)
 1d8:	80 91 0c 02 	lds	r24, 0x020C	; 0x80020c <uart1_bRxOK>
 1dc:	88 23       	and	r24, r24
			{
				//Copy the received data from the Rx buffer into the Tx buffer
				//and send the echo.
				memcpy(snTelegramaTx, snTelegramaRx, uart1_nLungimeRX);
 1de:	31 f1       	breq	.+76     	; 0x22c <main+0x164>
 1e0:	40 91 55 01 	lds	r20, 0x0155	; 0x800155 <uart1_nLungimeRX>
 1e4:	50 91 56 01 	lds	r21, 0x0156	; 0x800156 <uart1_nLungimeRX+0x1>
 1e8:	69 e5       	ldi	r22, 0x59	; 89
 1ea:	71 e0       	ldi	r23, 0x01	; 1
 1ec:	8d e2       	ldi	r24, 0x2D	; 45
 1ee:	92 e0       	ldi	r25, 0x02	; 2
 1f0:	13 d5       	rcall	.+2598   	; 0xc18 <memcpy>
				//add new line and carriage return
				memcpy(snTelegramaTx + uart1_nLungimeRX, sNewLine, 3);
 1f2:	e0 91 55 01 	lds	r30, 0x0155	; 0x800155 <uart1_nLungimeRX>
 1f6:	f0 91 56 01 	lds	r31, 0x0156	; 0x800156 <uart1_nLungimeRX+0x1>
 1fa:	e3 5d       	subi	r30, 0xD3	; 211
 1fc:	fd 4f       	sbci	r31, 0xFD	; 253
 1fe:	80 91 00 01 	lds	r24, 0x0100	; 0x800100 <__data_start>
 202:	90 91 01 01 	lds	r25, 0x0101	; 0x800101 <__data_start+0x1>
 206:	a0 91 02 01 	lds	r26, 0x0102	; 0x800102 <__data_start+0x2>
 20a:	80 83       	st	Z, r24
 20c:	91 83       	std	Z+1, r25	; 0x01
 20e:	a2 83       	std	Z+2, r26	; 0x02
				
				//Commence the transmission
				//If a transmission is already ongoing block here until that is finished
				//and then set the current transmission.
				//Note that the transmission function is otherwise not blocking.
				uart1_TransmiteExt(snTelegramaTx , strlen(snTelegramaTx), true, false);
 210:	ed e2       	ldi	r30, 0x2D	; 45
 212:	f2 e0       	ldi	r31, 0x02	; 2
 214:	01 90       	ld	r0, Z+
 216:	00 20       	and	r0, r0
 218:	e9 f7       	brne	.-6      	; 0x214 <main+0x14c>
 21a:	31 97       	sbiw	r30, 0x01	; 1
 21c:	bf 01       	movw	r22, r30
 21e:	6d 52       	subi	r22, 0x2D	; 45
 220:	72 40       	sbci	r23, 0x02	; 2
 222:	20 e0       	ldi	r18, 0x00	; 0
 224:	41 e0       	ldi	r20, 0x01	; 1
 226:	8d e2       	ldi	r24, 0x2D	; 45
 228:	92 e0       	ldi	r25, 0x02	; 2
			}
			
			//reset the flag to prevent re-processing of the same conditions
			uart1_bStareNeprocesata = false;
 22a:	77 d3       	rcall	.+1774   	; 0x91a <uart1_TransmiteExt>
 22c:	10 92 ff 01 	sts	0x01FF, r1	; 0x8001ff <uart1_bStareNeprocesata>
    } else if (__radix < 2 || __radix > 36) {
	*__s = 0;
	return __s;
    } else {
	extern char *__itoa_ncheck (int, char *, unsigned char);
	return __itoa_ncheck (__val, __s, __radix);
 230:	4a e0       	ldi	r20, 0x0A	; 10
 232:	61 e2       	ldi	r22, 0x21	; 33
 234:	72 e0       	ldi	r23, 0x02	; 2
 236:	80 91 4c 01 	lds	r24, 0x014C	; 0x80014c <__data_end>
 23a:	90 91 4d 01 	lds	r25, 0x014D	; 0x80014d <__data_end+0x1>
		}
		
		itoa(count,str,10);
		uart1_Transmite("\n\rCounter: ",11, true);
 23e:	f5 d4       	rcall	.+2538   	; 0xc2a <__itoa_ncheck>
 240:	41 e0       	ldi	r20, 0x01	; 1
 242:	6b e0       	ldi	r22, 0x0B	; 11
 244:	70 e0       	ldi	r23, 0x00	; 0
 246:	80 e4       	ldi	r24, 0x40	; 64
 248:	91 e0       	ldi	r25, 0x01	; 1
 24a:	b4 d3       	rcall	.+1896   	; 0x9b4 <uart1_Transmite>
		uart1_Transmite(str,4, true);
 24c:	41 e0       	ldi	r20, 0x01	; 1
 24e:	64 e0       	ldi	r22, 0x04	; 4
 250:	70 e0       	ldi	r23, 0x00	; 0
 252:	81 e2       	ldi	r24, 0x21	; 33
 254:	92 e0       	ldi	r25, 0x02	; 2
 256:	ae d3       	rcall	.+1884   	; 0x9b4 <uart1_Transmite>
 258:	92 cf       	rjmp	.-220    	; 0x17e <main+0xb6>

0000025a <__vector_5>:
	}
	
	while(1);
 25a:	1f 92       	push	r1
}



ISR(INT4_vect)
{
 25c:	0f 92       	push	r0
 25e:	0f b6       	in	r0, 0x3f	; 63
 260:	0f 92       	push	r0
 262:	11 24       	eor	r1, r1
 264:	8f 93       	push	r24
 266:	9f 93       	push	r25
	count++;
 268:	80 91 4c 01 	lds	r24, 0x014C	; 0x80014c <__data_end>
 26c:	90 91 4d 01 	lds	r25, 0x014D	; 0x80014d <__data_end+0x1>
 270:	01 96       	adiw	r24, 0x01	; 1
 272:	90 93 4d 01 	sts	0x014D, r25	; 0x80014d <__data_end+0x1>
 276:	80 93 4c 01 	sts	0x014C, r24	; 0x80014c <__data_end>
}
 27a:	9f 91       	pop	r25
 27c:	8f 91       	pop	r24
 27e:	0f 90       	pop	r0
 280:	0f be       	out	0x3f, r0	; 63
 282:	0f 90       	pop	r0
 284:	1f 90       	pop	r1
 286:	18 95       	reti

00000288 <__vector_6>:

ISR(INT5_vect)
{
 288:	1f 92       	push	r1
 28a:	0f 92       	push	r0
 28c:	0f b6       	in	r0, 0x3f	; 63
 28e:	0f 92       	push	r0
 290:	11 24       	eor	r1, r1
 292:	8f 93       	push	r24
	TCNT1 = 0;
 294:	1d bc       	out	0x2d, r1	; 45
 296:	1c bc       	out	0x2c, r1	; 44
	TCCR1B =  (0<<WGM13) | (1<<WGM12) | (1<<CS12) | (0<<CS11) | (0<<CS10);
 298:	8c e0       	ldi	r24, 0x0C	; 12
 29a:	8e bd       	out	0x2e, r24	; 46
}
 29c:	8f 91       	pop	r24
 29e:	0f 90       	pop	r0
 2a0:	0f be       	out	0x3f, r0	; 63
 2a2:	0f 90       	pop	r0
 2a4:	1f 90       	pop	r1
 2a6:	18 95       	reti

000002a8 <__vector_12>:



ISR(TIMER1_COMPA_vect)
{
 2a8:	1f 92       	push	r1
 2aa:	0f 92       	push	r0
 2ac:	0f b6       	in	r0, 0x3f	; 63
 2ae:	0f 92       	push	r0
 2b0:	11 24       	eor	r1, r1
 2b2:	8f 93       	push	r24
 2b4:	9f 93       	push	r25
	if((PINE & (1<<PINE5)) == 0)
 2b6:	0d 99       	sbic	0x01, 5	; 1
 2b8:	09 c0       	rjmp	.+18     	; 0x2cc <__vector_12+0x24>
	{
		count++;
 2ba:	80 91 4c 01 	lds	r24, 0x014C	; 0x80014c <__data_end>
 2be:	90 91 4d 01 	lds	r25, 0x014D	; 0x80014d <__data_end+0x1>
 2c2:	01 96       	adiw	r24, 0x01	; 1
 2c4:	90 93 4d 01 	sts	0x014D, r25	; 0x80014d <__data_end+0x1>
 2c8:	80 93 4c 01 	sts	0x014C, r24	; 0x80014c <__data_end>
	}
	
	TCCR1B = (0<<WGM13) | (1<<WGM12) | (0<<CS12) | (0<<CS11) | (0<<CS10);
 2cc:	88 e0       	ldi	r24, 0x08	; 8
 2ce:	8e bd       	out	0x2e, r24	; 46
}
 2d0:	9f 91       	pop	r25
 2d2:	8f 91       	pop	r24
 2d4:	0f 90       	pop	r0
 2d6:	0f be       	out	0x3f, r0	; 63
 2d8:	0f 90       	pop	r0
 2da:	1f 90       	pop	r1
 2dc:	18 95       	reti

000002de <watchdog_init>:
 2de:	a8 95       	wdr
 2e0:	81 e0       	ldi	r24, 0x01	; 1
 2e2:	81 bd       	out	0x21, r24	; 33
 2e4:	08 95       	ret

000002e6 <port_init>:
 2e6:	8f ef       	ldi	r24, 0xFF	; 255
 2e8:	8a bb       	out	0x1a, r24	; 26
 2ea:	8b bb       	out	0x1b, r24	; 27
 2ec:	88 bb       	out	0x18, r24	; 24
 2ee:	87 bb       	out	0x17, r24	; 23
 2f0:	9f e7       	ldi	r25, 0x7F	; 127
 2f2:	95 bb       	out	0x15, r25	; 21
 2f4:	94 bb       	out	0x14, r25	; 20
 2f6:	12 ba       	out	0x12, r1	; 18
 2f8:	81 bb       	out	0x11, r24	; 17
 2fa:	83 b9       	out	0x03, r24	; 3
 2fc:	82 b9       	out	0x02, r24	; 2
 2fe:	80 93 62 00 	sts	0x0062, r24	; 0x800062 <__TEXT_REGION_LENGTH__+0x7e0062>
 302:	80 93 61 00 	sts	0x0061, r24	; 0x800061 <__TEXT_REGION_LENGTH__+0x7e0061>
 306:	e5 e6       	ldi	r30, 0x65	; 101
 308:	f0 e0       	ldi	r31, 0x00	; 0
 30a:	80 83       	st	Z, r24
 30c:	80 93 64 00 	sts	0x0064, r24	; 0x800064 <__TEXT_REGION_LENGTH__+0x7e0064>
 310:	f0 93 0a 02 	sts	0x020A, r31	; 0x80020a <ledPort+0x1>
 314:	e0 93 09 02 	sts	0x0209, r30	; 0x800209 <ledPort>
 318:	81 e0       	ldi	r24, 0x01	; 1
 31a:	80 93 28 02 	sts	0x0228, r24	; 0x800228 <ledPinMask>
 31e:	08 95       	ret

00000320 <init_devices>:
 320:	8f 92       	push	r8
 322:	9f 92       	push	r9
 324:	af 92       	push	r10
 326:	cf 92       	push	r12
 328:	ef 92       	push	r14
 32a:	0f 93       	push	r16
 32c:	d8 df       	rcall	.-80     	; 0x2de <watchdog_init>
 32e:	f8 94       	cli
 330:	1c be       	out	0x3c, r1	; 60
 332:	10 92 6d 00 	sts	0x006D, r1	; 0x80006d <__TEXT_REGION_LENGTH__+0x7e006d>
 336:	d7 df       	rcall	.-82     	; 0x2e6 <port_init>
 338:	a8 95       	wdr
 33a:	1f 92       	push	r1
 33c:	1f 92       	push	r1
 33e:	81 2c       	mov	r8, r1
 340:	91 2c       	mov	r9, r1
 342:	0f 2e       	mov	r0, r31
 344:	f8 ef       	ldi	r31, 0xF8	; 248
 346:	af 2e       	mov	r10, r31
 348:	f0 2d       	mov	r31, r0
 34a:	c1 2c       	mov	r12, r1
 34c:	0f 2e       	mov	r0, r31
 34e:	f7 e0       	ldi	r31, 0x07	; 7
 350:	ef 2e       	mov	r14, r31
 352:	f0 2d       	mov	r31, r0
 354:	06 e0       	ldi	r16, 0x06	; 6
 356:	20 e0       	ldi	r18, 0x00	; 0
 358:	40 e0       	ldi	r20, 0x00	; 0
 35a:	60 e0       	ldi	r22, 0x00	; 0
 35c:	80 e0       	ldi	r24, 0x00	; 0
 35e:	90 e0       	ldi	r25, 0x00	; 0
 360:	a2 d1       	rcall	.+836    	; 0x6a6 <uart1_init>
 362:	78 94       	sei
 364:	15 be       	out	0x35, r1	; 53
 366:	10 92 6a 00 	sts	0x006A, r1	; 0x80006a <__TEXT_REGION_LENGTH__+0x7e006a>
 36a:	1a be       	out	0x3a, r1	; 58
 36c:	19 be       	out	0x39, r1	; 57
 36e:	80 e4       	ldi	r24, 0x40	; 64
 370:	87 bf       	out	0x37, r24	; 55
 372:	10 92 7d 00 	sts	0x007D, r1	; 0x80007d <__TEXT_REGION_LENGTH__+0x7e007d>
 376:	78 94       	sei
 378:	0f 90       	pop	r0
 37a:	0f 90       	pop	r0
 37c:	0f 91       	pop	r16
 37e:	ef 90       	pop	r14
 380:	cf 90       	pop	r12
 382:	af 90       	pop	r10
 384:	9f 90       	pop	r9
 386:	8f 90       	pop	r8
 388:	08 95       	ret

0000038a <timer2_init>:
 38a:	15 bc       	out	0x25, r1	; 37
 38c:	14 bc       	out	0x24, r1	; 36
 38e:	87 e4       	ldi	r24, 0x47	; 71
 390:	83 bd       	out	0x23, r24	; 35
 392:	8d e0       	ldi	r24, 0x0D	; 13
 394:	85 bd       	out	0x25, r24	; 37
 396:	87 b7       	in	r24, 0x37	; 55
 398:	80 68       	ori	r24, 0x80	; 128
 39a:	87 bf       	out	0x37, r24	; 55
 39c:	87 b7       	in	r24, 0x37	; 55
 39e:	8e 7f       	andi	r24, 0xFE	; 254
 3a0:	87 bf       	out	0x37, r24	; 55
 3a2:	08 95       	ret

000003a4 <__vector_9>:
 3a4:	1f 92       	push	r1
 3a6:	0f 92       	push	r0
 3a8:	0f b6       	in	r0, 0x3f	; 63
 3aa:	0f 92       	push	r0
 3ac:	11 24       	eor	r1, r1
 3ae:	2f 93       	push	r18
 3b0:	3f 93       	push	r19
 3b2:	8f 93       	push	r24
 3b4:	9f 93       	push	r25
 3b6:	14 bc       	out	0x24, r1	; 36
 3b8:	80 91 1b 02 	lds	r24, 0x021B	; 0x80021b <uart0_bTimerCounting>
 3bc:	88 23       	and	r24, r24
 3be:	19 f1       	breq	.+70     	; 0x406 <__LOCK_REGION_LENGTH__+0x6>
 3c0:	80 91 18 02 	lds	r24, 0x0218	; 0x800218 <uart0_nValoareTimeout>
 3c4:	90 91 19 02 	lds	r25, 0x0219	; 0x800219 <uart0_nValoareTimeout+0x1>
 3c8:	89 2b       	or	r24, r25
 3ca:	e9 f0       	breq	.+58     	; 0x406 <__LOCK_REGION_LENGTH__+0x6>
 3cc:	80 91 e5 01 	lds	r24, 0x01E5	; 0x8001e5 <uart0_nContorTimeout>
 3d0:	90 91 e6 01 	lds	r25, 0x01E6	; 0x8001e6 <uart0_nContorTimeout+0x1>
 3d4:	01 96       	adiw	r24, 0x01	; 1
 3d6:	90 93 e6 01 	sts	0x01E6, r25	; 0x8001e6 <uart0_nContorTimeout+0x1>
 3da:	80 93 e5 01 	sts	0x01E5, r24	; 0x8001e5 <uart0_nContorTimeout>
 3de:	20 91 e5 01 	lds	r18, 0x01E5	; 0x8001e5 <uart0_nContorTimeout>
 3e2:	30 91 e6 01 	lds	r19, 0x01E6	; 0x8001e6 <uart0_nContorTimeout+0x1>
 3e6:	80 91 18 02 	lds	r24, 0x0218	; 0x800218 <uart0_nValoareTimeout>
 3ea:	90 91 19 02 	lds	r25, 0x0219	; 0x800219 <uart0_nValoareTimeout+0x1>
 3ee:	28 17       	cp	r18, r24
 3f0:	39 07       	cpc	r19, r25
 3f2:	48 f0       	brcs	.+18     	; 0x406 <__LOCK_REGION_LENGTH__+0x6>
 3f4:	81 e0       	ldi	r24, 0x01	; 1
 3f6:	80 93 e0 01 	sts	0x01E0, r24	; 0x8001e0 <uart0_bTimeout>
 3fa:	10 92 12 02 	sts	0x0212, r1	; 0x800212 <uart0_bReceptioneaza>
 3fe:	80 93 df 01 	sts	0x01DF, r24	; 0x8001df <uart0_bStareNeprocesata>
 402:	10 92 1b 02 	sts	0x021B, r1	; 0x80021b <uart0_bTimerCounting>
 406:	80 91 06 02 	lds	r24, 0x0206	; 0x800206 <uart0_bTimerCarCounting>
 40a:	88 23       	and	r24, r24
 40c:	e9 f0       	breq	.+58     	; 0x448 <__LOCK_REGION_LENGTH__+0x48>
 40e:	80 91 dd 01 	lds	r24, 0x01DD	; 0x8001dd <uart0_nContorTimeoutCar>
 412:	90 91 de 01 	lds	r25, 0x01DE	; 0x8001de <uart0_nContorTimeoutCar+0x1>
 416:	01 96       	adiw	r24, 0x01	; 1
 418:	90 93 de 01 	sts	0x01DE, r25	; 0x8001de <uart0_nContorTimeoutCar+0x1>
 41c:	80 93 dd 01 	sts	0x01DD, r24	; 0x8001dd <uart0_nContorTimeoutCar>
 420:	20 91 dd 01 	lds	r18, 0x01DD	; 0x8001dd <uart0_nContorTimeoutCar>
 424:	30 91 de 01 	lds	r19, 0x01DE	; 0x8001de <uart0_nContorTimeoutCar+0x1>
 428:	80 91 f0 01 	lds	r24, 0x01F0	; 0x8001f0 <uart0_nValoareTimeoutCar>
 42c:	90 91 f1 01 	lds	r25, 0x01F1	; 0x8001f1 <uart0_nValoareTimeoutCar+0x1>
 430:	28 17       	cp	r18, r24
 432:	39 07       	cpc	r19, r25
 434:	48 f0       	brcs	.+18     	; 0x448 <__LOCK_REGION_LENGTH__+0x48>
 436:	81 e0       	ldi	r24, 0x01	; 1
 438:	80 93 52 01 	sts	0x0152, r24	; 0x800152 <uart0_bTimeoutCar>
 43c:	10 92 12 02 	sts	0x0212, r1	; 0x800212 <uart0_bReceptioneaza>
 440:	80 93 df 01 	sts	0x01DF, r24	; 0x8001df <uart0_bStareNeprocesata>
 444:	10 92 06 02 	sts	0x0206, r1	; 0x800206 <uart0_bTimerCarCounting>
 448:	80 91 02 02 	lds	r24, 0x0202	; 0x800202 <uart1_bTimerCounting>
 44c:	88 23       	and	r24, r24
 44e:	19 f1       	breq	.+70     	; 0x496 <__LOCK_REGION_LENGTH__+0x96>
 450:	80 91 fb 01 	lds	r24, 0x01FB	; 0x8001fb <uart1_nValoareTimeout>
 454:	90 91 fc 01 	lds	r25, 0x01FC	; 0x8001fc <uart1_nValoareTimeout+0x1>
 458:	89 2b       	or	r24, r25
 45a:	e9 f0       	breq	.+58     	; 0x496 <__LOCK_REGION_LENGTH__+0x96>
 45c:	80 91 15 02 	lds	r24, 0x0215	; 0x800215 <uart1_nContorTimeout>
 460:	90 91 16 02 	lds	r25, 0x0216	; 0x800216 <uart1_nContorTimeout+0x1>
 464:	01 96       	adiw	r24, 0x01	; 1
 466:	90 93 16 02 	sts	0x0216, r25	; 0x800216 <uart1_nContorTimeout+0x1>
 46a:	80 93 15 02 	sts	0x0215, r24	; 0x800215 <uart1_nContorTimeout>
 46e:	20 91 15 02 	lds	r18, 0x0215	; 0x800215 <uart1_nContorTimeout>
 472:	30 91 16 02 	lds	r19, 0x0216	; 0x800216 <uart1_nContorTimeout+0x1>
 476:	80 91 fb 01 	lds	r24, 0x01FB	; 0x8001fb <uart1_nValoareTimeout>
 47a:	90 91 fc 01 	lds	r25, 0x01FC	; 0x8001fc <uart1_nValoareTimeout+0x1>
 47e:	28 17       	cp	r18, r24
 480:	39 07       	cpc	r19, r25
 482:	48 f0       	brcs	.+18     	; 0x496 <__LOCK_REGION_LENGTH__+0x96>
 484:	81 e0       	ldi	r24, 0x01	; 1
 486:	80 93 b4 02 	sts	0x02B4, r24	; 0x8002b4 <uart1_bTimeout>
 48a:	10 92 27 02 	sts	0x0227, r1	; 0x800227 <uart1_bReceptioneaza>
 48e:	80 93 ff 01 	sts	0x01FF, r24	; 0x8001ff <uart1_bStareNeprocesata>
 492:	10 92 02 02 	sts	0x0202, r1	; 0x800202 <uart1_bTimerCounting>
 496:	80 91 0b 02 	lds	r24, 0x020B	; 0x80020b <uart1_bTimerCarCounting>
 49a:	88 23       	and	r24, r24
 49c:	e9 f0       	breq	.+58     	; 0x4d8 <__LOCK_REGION_LENGTH__+0xd8>
 49e:	80 91 e8 01 	lds	r24, 0x01E8	; 0x8001e8 <uart1_nContorTimeoutCar>
 4a2:	90 91 e9 01 	lds	r25, 0x01E9	; 0x8001e9 <uart1_nContorTimeoutCar+0x1>
 4a6:	01 96       	adiw	r24, 0x01	; 1
 4a8:	90 93 e9 01 	sts	0x01E9, r25	; 0x8001e9 <uart1_nContorTimeoutCar+0x1>
 4ac:	80 93 e8 01 	sts	0x01E8, r24	; 0x8001e8 <uart1_nContorTimeoutCar>
 4b0:	20 91 e8 01 	lds	r18, 0x01E8	; 0x8001e8 <uart1_nContorTimeoutCar>
 4b4:	30 91 e9 01 	lds	r19, 0x01E9	; 0x8001e9 <uart1_nContorTimeoutCar+0x1>
 4b8:	80 91 ad 02 	lds	r24, 0x02AD	; 0x8002ad <uart1_nValoareTimeoutCar>
 4bc:	90 91 ae 02 	lds	r25, 0x02AE	; 0x8002ae <uart1_nValoareTimeoutCar+0x1>
 4c0:	28 17       	cp	r18, r24
 4c2:	39 07       	cpc	r19, r25
 4c4:	48 f0       	brcs	.+18     	; 0x4d8 <__LOCK_REGION_LENGTH__+0xd8>
 4c6:	81 e0       	ldi	r24, 0x01	; 1
 4c8:	80 93 10 02 	sts	0x0210, r24	; 0x800210 <uart1_bTimeoutCar>
 4cc:	10 92 27 02 	sts	0x0227, r1	; 0x800227 <uart1_bReceptioneaza>
 4d0:	80 93 ff 01 	sts	0x01FF, r24	; 0x8001ff <uart1_bStareNeprocesata>
 4d4:	10 92 0b 02 	sts	0x020B, r1	; 0x80020b <uart1_bTimerCarCounting>
 4d8:	9f 91       	pop	r25
 4da:	8f 91       	pop	r24
 4dc:	3f 91       	pop	r19
 4de:	2f 91       	pop	r18
 4e0:	0f 90       	pop	r0
 4e2:	0f be       	out	0x3f, r0	; 63
 4e4:	0f 90       	pop	r0
 4e6:	1f 90       	pop	r1
 4e8:	18 95       	reti

000004ea <__vector_19>:
 4ea:	1f 92       	push	r1
 4ec:	0f 92       	push	r0
 4ee:	0f b6       	in	r0, 0x3f	; 63
 4f0:	0f 92       	push	r0
 4f2:	11 24       	eor	r1, r1
 4f4:	0b b6       	in	r0, 0x3b	; 59
 4f6:	0f 92       	push	r0
 4f8:	2f 93       	push	r18
 4fa:	3f 93       	push	r19
 4fc:	8f 93       	push	r24
 4fe:	9f 93       	push	r25
 500:	ef 93       	push	r30
 502:	ff 93       	push	r31
 504:	a8 95       	wdr
 506:	80 91 24 02 	lds	r24, 0x0224	; 0x800224 <uart0_nContorTX>
 50a:	90 91 25 02 	lds	r25, 0x0225	; 0x800225 <uart0_nContorTX+0x1>
 50e:	01 96       	adiw	r24, 0x01	; 1
 510:	90 93 25 02 	sts	0x0225, r25	; 0x800225 <uart0_nContorTX+0x1>
 514:	80 93 24 02 	sts	0x0224, r24	; 0x800224 <uart0_nContorTX>
 518:	20 91 24 02 	lds	r18, 0x0224	; 0x800224 <uart0_nContorTX>
 51c:	30 91 25 02 	lds	r19, 0x0225	; 0x800225 <uart0_nContorTX+0x1>
 520:	80 91 fd 01 	lds	r24, 0x01FD	; 0x8001fd <uart0_nLungimeTX>
 524:	90 91 fe 01 	lds	r25, 0x01FE	; 0x8001fe <uart0_nLungimeTX+0x1>
 528:	28 17       	cp	r18, r24
 52a:	39 07       	cpc	r19, r25
 52c:	29 f4       	brne	.+10     	; 0x538 <__vector_19+0x4e>
 52e:	9a b1       	in	r25, 0x0a	; 10
 530:	80 e2       	ldi	r24, 0x20	; 32
 532:	89 27       	eor	r24, r25
 534:	8a b9       	out	0x0a, r24	; 10
 536:	0c c0       	rjmp	.+24     	; 0x550 <__vector_19+0x66>
 538:	80 91 24 02 	lds	r24, 0x0224	; 0x800224 <uart0_nContorTX>
 53c:	90 91 25 02 	lds	r25, 0x0225	; 0x800225 <uart0_nContorTX+0x1>
 540:	e0 91 ec 01 	lds	r30, 0x01EC	; 0x8001ec <uart0_sTransmis>
 544:	f0 91 ed 01 	lds	r31, 0x01ED	; 0x8001ed <uart0_sTransmis+0x1>
 548:	e8 0f       	add	r30, r24
 54a:	f9 1f       	adc	r31, r25
 54c:	80 81       	ld	r24, Z
 54e:	8c b9       	out	0x0c, r24	; 12
 550:	ff 91       	pop	r31
 552:	ef 91       	pop	r30
 554:	9f 91       	pop	r25
 556:	8f 91       	pop	r24
 558:	3f 91       	pop	r19
 55a:	2f 91       	pop	r18
 55c:	0f 90       	pop	r0
 55e:	0b be       	out	0x3b, r0	; 59
 560:	0f 90       	pop	r0
 562:	0f be       	out	0x3f, r0	; 63
 564:	0f 90       	pop	r0
 566:	1f 90       	pop	r1
 568:	18 95       	reti

0000056a <__vector_20>:
 56a:	1f 92       	push	r1
 56c:	0f 92       	push	r0
 56e:	0f b6       	in	r0, 0x3f	; 63
 570:	0f 92       	push	r0
 572:	11 24       	eor	r1, r1
 574:	0b b6       	in	r0, 0x3b	; 59
 576:	0f 92       	push	r0
 578:	2f 93       	push	r18
 57a:	3f 93       	push	r19
 57c:	8f 93       	push	r24
 57e:	9f 93       	push	r25
 580:	ef 93       	push	r30
 582:	ff 93       	push	r31
 584:	a8 95       	wdr
 586:	20 91 24 02 	lds	r18, 0x0224	; 0x800224 <uart0_nContorTX>
 58a:	30 91 25 02 	lds	r19, 0x0225	; 0x800225 <uart0_nContorTX+0x1>
 58e:	80 91 fd 01 	lds	r24, 0x01FD	; 0x8001fd <uart0_nLungimeTX>
 592:	90 91 fe 01 	lds	r25, 0x01FE	; 0x8001fe <uart0_nLungimeTX+0x1>
 596:	28 17       	cp	r18, r24
 598:	39 07       	cpc	r19, r25
 59a:	e1 f4       	brne	.+56     	; 0x5d4 <__vector_20+0x6a>
 59c:	81 e0       	ldi	r24, 0x01	; 1
 59e:	80 93 1c 02 	sts	0x021C, r24	; 0x80021c <uart0_bTxOK>
 5a2:	10 92 db 01 	sts	0x01DB, r1	; 0x8001db <uart0_bTransmite>
 5a6:	80 91 11 02 	lds	r24, 0x0211	; 0x800211 <uart0_bRS485>
 5aa:	88 23       	and	r24, r24
 5ac:	99 f0       	breq	.+38     	; 0x5d4 <__vector_20+0x6a>
 5ae:	e0 91 e1 01 	lds	r30, 0x01E1	; 0x8001e1 <uart0_Port485Dir>
 5b2:	f0 91 e2 01 	lds	r31, 0x01E2	; 0x8001e2 <uart0_Port485Dir+0x1>
 5b6:	90 81       	ld	r25, Z
 5b8:	80 91 17 02 	lds	r24, 0x0217	; 0x800217 <uart0_Port485DirMask>
 5bc:	80 95       	com	r24
 5be:	89 23       	and	r24, r25
 5c0:	90 91 0d 02 	lds	r25, 0x020D	; 0x80020d <uart0_bRS485Inversat>
 5c4:	99 23       	and	r25, r25
 5c6:	19 f0       	breq	.+6      	; 0x5ce <__vector_20+0x64>
 5c8:	90 91 17 02 	lds	r25, 0x0217	; 0x800217 <uart0_Port485DirMask>
 5cc:	01 c0       	rjmp	.+2      	; 0x5d0 <__vector_20+0x66>
 5ce:	90 e0       	ldi	r25, 0x00	; 0
 5d0:	89 2b       	or	r24, r25
 5d2:	80 83       	st	Z, r24
 5d4:	ff 91       	pop	r31
 5d6:	ef 91       	pop	r30
 5d8:	9f 91       	pop	r25
 5da:	8f 91       	pop	r24
 5dc:	3f 91       	pop	r19
 5de:	2f 91       	pop	r18
 5e0:	0f 90       	pop	r0
 5e2:	0b be       	out	0x3b, r0	; 59
 5e4:	0f 90       	pop	r0
 5e6:	0f be       	out	0x3f, r0	; 63
 5e8:	0f 90       	pop	r0
 5ea:	1f 90       	pop	r1
 5ec:	18 95       	reti

000005ee <__vector_18>:
 5ee:	1f 92       	push	r1
 5f0:	0f 92       	push	r0
 5f2:	0f b6       	in	r0, 0x3f	; 63
 5f4:	0f 92       	push	r0
 5f6:	11 24       	eor	r1, r1
 5f8:	0b b6       	in	r0, 0x3b	; 59
 5fa:	0f 92       	push	r0
 5fc:	2f 93       	push	r18
 5fe:	3f 93       	push	r19
 600:	8f 93       	push	r24
 602:	9f 93       	push	r25
 604:	ef 93       	push	r30
 606:	ff 93       	push	r31
 608:	81 e0       	ldi	r24, 0x01	; 1
 60a:	80 93 06 02 	sts	0x0206, r24	; 0x800206 <uart0_bTimerCarCounting>
 60e:	10 92 de 01 	sts	0x01DE, r1	; 0x8001de <uart0_nContorTimeoutCar+0x1>
 612:	10 92 dd 01 	sts	0x01DD, r1	; 0x8001dd <uart0_nContorTimeoutCar>
 616:	a8 95       	wdr
 618:	8c b1       	in	r24, 0x0c	; 12
 61a:	80 93 29 02 	sts	0x0229, r24	; 0x800229 <uart0_sVid>
 61e:	80 91 12 02 	lds	r24, 0x0212	; 0x800212 <uart0_bReceptioneaza>
 622:	88 23       	and	r24, r24
 624:	99 f1       	breq	.+102    	; 0x68c <__vector_18+0x9e>
 626:	80 91 ee 01 	lds	r24, 0x01EE	; 0x8001ee <uart0_nContorRX>
 62a:	90 91 ef 01 	lds	r25, 0x01EF	; 0x8001ef <uart0_nContorRX+0x1>
 62e:	e0 91 e3 01 	lds	r30, 0x01E3	; 0x8001e3 <uart0_sReceptionat>
 632:	f0 91 e4 01 	lds	r31, 0x01E4	; 0x8001e4 <uart0_sReceptionat+0x1>
 636:	e8 0f       	add	r30, r24
 638:	f9 1f       	adc	r31, r25
 63a:	80 91 29 02 	lds	r24, 0x0229	; 0x800229 <uart0_sVid>
 63e:	80 83       	st	Z, r24
 640:	20 91 ee 01 	lds	r18, 0x01EE	; 0x8001ee <uart0_nContorRX>
 644:	30 91 ef 01 	lds	r19, 0x01EF	; 0x8001ef <uart0_nContorRX+0x1>
 648:	80 91 f4 01 	lds	r24, 0x01F4	; 0x8001f4 <uart0_nLungMaxBuferRX>
 64c:	90 91 f5 01 	lds	r25, 0x01F5	; 0x8001f5 <uart0_nLungMaxBuferRX+0x1>
 650:	28 17       	cp	r18, r24
 652:	39 07       	cpc	r19, r25
 654:	50 f4       	brcc	.+20     	; 0x66a <__vector_18+0x7c>
 656:	80 91 ee 01 	lds	r24, 0x01EE	; 0x8001ee <uart0_nContorRX>
 65a:	90 91 ef 01 	lds	r25, 0x01EF	; 0x8001ef <uart0_nContorRX+0x1>
 65e:	01 96       	adiw	r24, 0x01	; 1
 660:	90 93 ef 01 	sts	0x01EF, r25	; 0x8001ef <uart0_nContorRX+0x1>
 664:	80 93 ee 01 	sts	0x01EE, r24	; 0x8001ee <uart0_nContorRX>
 668:	11 c0       	rjmp	.+34     	; 0x68c <__vector_18+0x9e>
 66a:	80 91 f4 01 	lds	r24, 0x01F4	; 0x8001f4 <uart0_nLungMaxBuferRX>
 66e:	90 91 f5 01 	lds	r25, 0x01F5	; 0x8001f5 <uart0_nLungMaxBuferRX+0x1>
 672:	90 93 ef 01 	sts	0x01EF, r25	; 0x8001ef <uart0_nContorRX+0x1>
 676:	80 93 ee 01 	sts	0x01EE, r24	; 0x8001ee <uart0_nContorRX>
 67a:	81 e0       	ldi	r24, 0x01	; 1
 67c:	80 93 e7 01 	sts	0x01E7, r24	; 0x8001e7 <uart0_bRXBufferLimit>
 680:	10 92 12 02 	sts	0x0212, r1	; 0x800212 <uart0_bReceptioneaza>
 684:	80 93 df 01 	sts	0x01DF, r24	; 0x8001df <uart0_bStareNeprocesata>
 688:	10 92 1b 02 	sts	0x021B, r1	; 0x80021b <uart0_bTimerCounting>
 68c:	ff 91       	pop	r31
 68e:	ef 91       	pop	r30
 690:	9f 91       	pop	r25
 692:	8f 91       	pop	r24
 694:	3f 91       	pop	r19
 696:	2f 91       	pop	r18
 698:	0f 90       	pop	r0
 69a:	0b be       	out	0x3b, r0	; 59
 69c:	0f 90       	pop	r0
 69e:	0f be       	out	0x3f, r0	; 63
 6a0:	0f 90       	pop	r0
 6a2:	1f 90       	pop	r1
 6a4:	18 95       	reti

000006a6 <uart1_init>:
 6a6:	8f 92       	push	r8
 6a8:	9f 92       	push	r9
 6aa:	af 92       	push	r10
 6ac:	cf 92       	push	r12
 6ae:	ef 92       	push	r14
 6b0:	0f 93       	push	r16
 6b2:	cf 93       	push	r28
 6b4:	df 93       	push	r29
 6b6:	cd b7       	in	r28, 0x3d	; 61
 6b8:	de b7       	in	r29, 0x3e	; 62
 6ba:	ec ed       	ldi	r30, 0xDC	; 220
 6bc:	f1 e0       	ldi	r31, 0x01	; 1
 6be:	f0 93 14 02 	sts	0x0214, r31	; 0x800214 <uart1_sReceptionat+0x1>
 6c2:	e0 93 13 02 	sts	0x0213, r30	; 0x800213 <uart1_sReceptionat>
 6c6:	10 92 01 02 	sts	0x0201, r1	; 0x800201 <uart1_nContorRX+0x1>
 6ca:	10 92 00 02 	sts	0x0200, r1	; 0x800200 <uart1_nContorRX>
 6ce:	10 92 56 01 	sts	0x0156, r1	; 0x800156 <uart1_nLungimeRX+0x1>
 6d2:	10 92 55 01 	sts	0x0155, r1	; 0x800155 <uart1_nLungimeRX>
 6d6:	e1 e0       	ldi	r30, 0x01	; 1
 6d8:	f0 e0       	ldi	r31, 0x00	; 0
 6da:	f0 93 eb 01 	sts	0x01EB, r31	; 0x8001eb <uart1_nLungMaxBuferRX+0x1>
 6de:	e0 93 ea 01 	sts	0x01EA, r30	; 0x8001ea <uart1_nLungMaxBuferRX>
 6e2:	ea e9       	ldi	r30, 0x9A	; 154
 6e4:	f0 e0       	ldi	r31, 0x00	; 0
 6e6:	10 82       	st	Z, r1
 6e8:	20 93 9b 00 	sts	0x009B, r18	; 0x80009b <__TEXT_REGION_LENGTH__+0x7e009b>
 6ec:	00 93 9d 00 	sts	0x009D, r16	; 0x80009d <__TEXT_REGION_LENGTH__+0x7e009d>
 6f0:	e0 92 99 00 	sts	0x0099, r14	; 0x800099 <__TEXT_REGION_LENGTH__+0x7e0099>
 6f4:	c0 92 98 00 	sts	0x0098, r12	; 0x800098 <__TEXT_REGION_LENGTH__+0x7e0098>
 6f8:	a0 82       	st	Z, r10
 6fa:	90 92 fc 01 	sts	0x01FC, r9	; 0x8001fc <uart1_nValoareTimeout+0x1>
 6fe:	80 92 fb 01 	sts	0x01FB, r8	; 0x8001fb <uart1_nValoareTimeout>
 702:	2b 85       	ldd	r18, Y+11	; 0x0b
 704:	3c 85       	ldd	r19, Y+12	; 0x0c
 706:	30 93 ae 02 	sts	0x02AE, r19	; 0x8002ae <uart1_nValoareTimeoutCar+0x1>
 70a:	20 93 ad 02 	sts	0x02AD, r18	; 0x8002ad <uart1_nValoareTimeoutCar>
 70e:	10 92 0f 02 	sts	0x020F, r1	; 0x80020f <uart1_bTransmite>
 712:	30 81       	ld	r19, Z
 714:	20 e2       	ldi	r18, 0x20	; 32
 716:	23 27       	eor	r18, r19
 718:	20 83       	st	Z, r18
 71a:	00 97       	sbiw	r24, 0x00	; 0
 71c:	81 f0       	breq	.+32     	; 0x73e <uart1_init+0x98>
 71e:	90 93 b1 02 	sts	0x02B1, r25	; 0x8002b1 <uart1_Port485Dir+0x1>
 722:	80 93 b0 02 	sts	0x02B0, r24	; 0x8002b0 <uart1_Port485Dir>
 726:	fc 01       	movw	r30, r24
 728:	82 91       	ld	r24, -Z
 72a:	86 2b       	or	r24, r22
 72c:	80 83       	st	Z, r24
 72e:	60 93 20 02 	sts	0x0220, r22	; 0x800220 <uart1_Port485DirMask>
 732:	40 93 58 01 	sts	0x0158, r20	; 0x800158 <uart1_bRS485Inversat>
 736:	81 e0       	ldi	r24, 0x01	; 1
 738:	80 93 af 02 	sts	0x02AF, r24	; 0x8002af <uart1_bRS485>
 73c:	02 c0       	rjmp	.+4      	; 0x742 <uart1_init+0x9c>
 73e:	10 92 af 02 	sts	0x02AF, r1	; 0x8002af <uart1_bRS485>
 742:	23 de       	rcall	.-954    	; 0x38a <timer2_init>
 744:	df 91       	pop	r29
 746:	cf 91       	pop	r28
 748:	0f 91       	pop	r16
 74a:	ef 90       	pop	r14
 74c:	cf 90       	pop	r12
 74e:	af 90       	pop	r10
 750:	9f 90       	pop	r9
 752:	8f 90       	pop	r8
 754:	08 95       	ret

00000756 <__vector_31>:
 756:	1f 92       	push	r1
 758:	0f 92       	push	r0
 75a:	0f b6       	in	r0, 0x3f	; 63
 75c:	0f 92       	push	r0
 75e:	11 24       	eor	r1, r1
 760:	0b b6       	in	r0, 0x3b	; 59
 762:	0f 92       	push	r0
 764:	2f 93       	push	r18
 766:	3f 93       	push	r19
 768:	8f 93       	push	r24
 76a:	9f 93       	push	r25
 76c:	ef 93       	push	r30
 76e:	ff 93       	push	r31
 770:	a8 95       	wdr
 772:	80 91 b5 02 	lds	r24, 0x02B5	; 0x8002b5 <uart1_nContorTX>
 776:	90 91 b6 02 	lds	r25, 0x02B6	; 0x8002b6 <uart1_nContorTX+0x1>
 77a:	01 96       	adiw	r24, 0x01	; 1
 77c:	90 93 b6 02 	sts	0x02B6, r25	; 0x8002b6 <uart1_nContorTX+0x1>
 780:	80 93 b5 02 	sts	0x02B5, r24	; 0x8002b5 <uart1_nContorTX>
 784:	20 91 b5 02 	lds	r18, 0x02B5	; 0x8002b5 <uart1_nContorTX>
 788:	30 91 b6 02 	lds	r19, 0x02B6	; 0x8002b6 <uart1_nContorTX+0x1>
 78c:	80 91 f2 01 	lds	r24, 0x01F2	; 0x8001f2 <uart1_nLungimeTX>
 790:	90 91 f3 01 	lds	r25, 0x01F3	; 0x8001f3 <uart1_nLungimeTX+0x1>
 794:	28 17       	cp	r18, r24
 796:	39 07       	cpc	r19, r25
 798:	39 f4       	brne	.+14     	; 0x7a8 <__vector_31+0x52>
 79a:	ea e9       	ldi	r30, 0x9A	; 154
 79c:	f0 e0       	ldi	r31, 0x00	; 0
 79e:	90 81       	ld	r25, Z
 7a0:	80 e2       	ldi	r24, 0x20	; 32
 7a2:	89 27       	eor	r24, r25
 7a4:	80 83       	st	Z, r24
 7a6:	0d c0       	rjmp	.+26     	; 0x7c2 <__vector_31+0x6c>
 7a8:	80 91 b5 02 	lds	r24, 0x02B5	; 0x8002b5 <uart1_nContorTX>
 7ac:	90 91 b6 02 	lds	r25, 0x02B6	; 0x8002b6 <uart1_nContorTX+0x1>
 7b0:	e0 91 f9 01 	lds	r30, 0x01F9	; 0x8001f9 <uart1_sTransmis>
 7b4:	f0 91 fa 01 	lds	r31, 0x01FA	; 0x8001fa <uart1_sTransmis+0x1>
 7b8:	e8 0f       	add	r30, r24
 7ba:	f9 1f       	adc	r31, r25
 7bc:	80 81       	ld	r24, Z
 7be:	80 93 9c 00 	sts	0x009C, r24	; 0x80009c <__TEXT_REGION_LENGTH__+0x7e009c>
 7c2:	ff 91       	pop	r31
 7c4:	ef 91       	pop	r30
 7c6:	9f 91       	pop	r25
 7c8:	8f 91       	pop	r24
 7ca:	3f 91       	pop	r19
 7cc:	2f 91       	pop	r18
 7ce:	0f 90       	pop	r0
 7d0:	0b be       	out	0x3b, r0	; 59
 7d2:	0f 90       	pop	r0
 7d4:	0f be       	out	0x3f, r0	; 63
 7d6:	0f 90       	pop	r0
 7d8:	1f 90       	pop	r1
 7da:	18 95       	reti

000007dc <__vector_32>:
 7dc:	1f 92       	push	r1
 7de:	0f 92       	push	r0
 7e0:	0f b6       	in	r0, 0x3f	; 63
 7e2:	0f 92       	push	r0
 7e4:	11 24       	eor	r1, r1
 7e6:	0b b6       	in	r0, 0x3b	; 59
 7e8:	0f 92       	push	r0
 7ea:	2f 93       	push	r18
 7ec:	3f 93       	push	r19
 7ee:	8f 93       	push	r24
 7f0:	9f 93       	push	r25
 7f2:	ef 93       	push	r30
 7f4:	ff 93       	push	r31
 7f6:	a8 95       	wdr
 7f8:	20 91 b5 02 	lds	r18, 0x02B5	; 0x8002b5 <uart1_nContorTX>
 7fc:	30 91 b6 02 	lds	r19, 0x02B6	; 0x8002b6 <uart1_nContorTX+0x1>
 800:	80 91 f2 01 	lds	r24, 0x01F2	; 0x8001f2 <uart1_nLungimeTX>
 804:	90 91 f3 01 	lds	r25, 0x01F3	; 0x8001f3 <uart1_nLungimeTX+0x1>
 808:	28 17       	cp	r18, r24
 80a:	39 07       	cpc	r19, r25
 80c:	e1 f4       	brne	.+56     	; 0x846 <__vector_32+0x6a>
 80e:	81 e0       	ldi	r24, 0x01	; 1
 810:	80 93 26 02 	sts	0x0226, r24	; 0x800226 <uart1_bTxOK>
 814:	10 92 0f 02 	sts	0x020F, r1	; 0x80020f <uart1_bTransmite>
 818:	80 91 af 02 	lds	r24, 0x02AF	; 0x8002af <uart1_bRS485>
 81c:	88 23       	and	r24, r24
 81e:	99 f0       	breq	.+38     	; 0x846 <__vector_32+0x6a>
 820:	e0 91 b0 02 	lds	r30, 0x02B0	; 0x8002b0 <uart1_Port485Dir>
 824:	f0 91 b1 02 	lds	r31, 0x02B1	; 0x8002b1 <uart1_Port485Dir+0x1>
 828:	90 81       	ld	r25, Z
 82a:	80 91 20 02 	lds	r24, 0x0220	; 0x800220 <uart1_Port485DirMask>
 82e:	80 95       	com	r24
 830:	89 23       	and	r24, r25
 832:	90 91 58 01 	lds	r25, 0x0158	; 0x800158 <uart1_bRS485Inversat>
 836:	99 23       	and	r25, r25
 838:	19 f0       	breq	.+6      	; 0x840 <__vector_32+0x64>
 83a:	90 91 20 02 	lds	r25, 0x0220	; 0x800220 <uart1_Port485DirMask>
 83e:	01 c0       	rjmp	.+2      	; 0x842 <__vector_32+0x66>
 840:	90 e0       	ldi	r25, 0x00	; 0
 842:	89 2b       	or	r24, r25
 844:	80 83       	st	Z, r24
 846:	ff 91       	pop	r31
 848:	ef 91       	pop	r30
 84a:	9f 91       	pop	r25
 84c:	8f 91       	pop	r24
 84e:	3f 91       	pop	r19
 850:	2f 91       	pop	r18
 852:	0f 90       	pop	r0
 854:	0b be       	out	0x3b, r0	; 59
 856:	0f 90       	pop	r0
 858:	0f be       	out	0x3f, r0	; 63
 85a:	0f 90       	pop	r0
 85c:	1f 90       	pop	r1
 85e:	18 95       	reti

00000860 <__vector_30>:
 860:	1f 92       	push	r1
 862:	0f 92       	push	r0
 864:	0f b6       	in	r0, 0x3f	; 63
 866:	0f 92       	push	r0
 868:	11 24       	eor	r1, r1
 86a:	0b b6       	in	r0, 0x3b	; 59
 86c:	0f 92       	push	r0
 86e:	2f 93       	push	r18
 870:	3f 93       	push	r19
 872:	8f 93       	push	r24
 874:	9f 93       	push	r25
 876:	ef 93       	push	r30
 878:	ff 93       	push	r31
 87a:	81 e0       	ldi	r24, 0x01	; 1
 87c:	80 93 0b 02 	sts	0x020B, r24	; 0x80020b <uart1_bTimerCarCounting>
 880:	10 92 e9 01 	sts	0x01E9, r1	; 0x8001e9 <uart1_nContorTimeoutCar+0x1>
 884:	10 92 e8 01 	sts	0x01E8, r1	; 0x8001e8 <uart1_nContorTimeoutCar>
 888:	a8 95       	wdr
 88a:	80 91 9c 00 	lds	r24, 0x009C	; 0x80009c <__TEXT_REGION_LENGTH__+0x7e009c>
 88e:	80 93 dc 01 	sts	0x01DC, r24	; 0x8001dc <uart1_sVid>
 892:	80 91 27 02 	lds	r24, 0x0227	; 0x800227 <uart1_bReceptioneaza>
 896:	88 23       	and	r24, r24
 898:	99 f1       	breq	.+102    	; 0x900 <__vector_30+0xa0>
 89a:	80 91 00 02 	lds	r24, 0x0200	; 0x800200 <uart1_nContorRX>
 89e:	90 91 01 02 	lds	r25, 0x0201	; 0x800201 <uart1_nContorRX+0x1>
 8a2:	e0 91 13 02 	lds	r30, 0x0213	; 0x800213 <uart1_sReceptionat>
 8a6:	f0 91 14 02 	lds	r31, 0x0214	; 0x800214 <uart1_sReceptionat+0x1>
 8aa:	e8 0f       	add	r30, r24
 8ac:	f9 1f       	adc	r31, r25
 8ae:	80 91 dc 01 	lds	r24, 0x01DC	; 0x8001dc <uart1_sVid>
 8b2:	80 83       	st	Z, r24
 8b4:	20 91 00 02 	lds	r18, 0x0200	; 0x800200 <uart1_nContorRX>
 8b8:	30 91 01 02 	lds	r19, 0x0201	; 0x800201 <uart1_nContorRX+0x1>
 8bc:	80 91 ea 01 	lds	r24, 0x01EA	; 0x8001ea <uart1_nLungMaxBuferRX>
 8c0:	90 91 eb 01 	lds	r25, 0x01EB	; 0x8001eb <uart1_nLungMaxBuferRX+0x1>
 8c4:	28 17       	cp	r18, r24
 8c6:	39 07       	cpc	r19, r25
 8c8:	50 f4       	brcc	.+20     	; 0x8de <__vector_30+0x7e>
 8ca:	80 91 00 02 	lds	r24, 0x0200	; 0x800200 <uart1_nContorRX>
 8ce:	90 91 01 02 	lds	r25, 0x0201	; 0x800201 <uart1_nContorRX+0x1>
 8d2:	01 96       	adiw	r24, 0x01	; 1
 8d4:	90 93 01 02 	sts	0x0201, r25	; 0x800201 <uart1_nContorRX+0x1>
 8d8:	80 93 00 02 	sts	0x0200, r24	; 0x800200 <uart1_nContorRX>
 8dc:	11 c0       	rjmp	.+34     	; 0x900 <__vector_30+0xa0>
 8de:	80 91 ea 01 	lds	r24, 0x01EA	; 0x8001ea <uart1_nLungMaxBuferRX>
 8e2:	90 91 eb 01 	lds	r25, 0x01EB	; 0x8001eb <uart1_nLungMaxBuferRX+0x1>
 8e6:	90 93 01 02 	sts	0x0201, r25	; 0x800201 <uart1_nContorRX+0x1>
 8ea:	80 93 00 02 	sts	0x0200, r24	; 0x800200 <uart1_nContorRX>
 8ee:	81 e0       	ldi	r24, 0x01	; 1
 8f0:	80 93 57 01 	sts	0x0157, r24	; 0x800157 <uart1_bRXBufferLimit>
 8f4:	10 92 27 02 	sts	0x0227, r1	; 0x800227 <uart1_bReceptioneaza>
 8f8:	80 93 ff 01 	sts	0x01FF, r24	; 0x8001ff <uart1_bStareNeprocesata>
 8fc:	10 92 02 02 	sts	0x0202, r1	; 0x800202 <uart1_bTimerCounting>
 900:	ff 91       	pop	r31
 902:	ef 91       	pop	r30
 904:	9f 91       	pop	r25
 906:	8f 91       	pop	r24
 908:	3f 91       	pop	r19
 90a:	2f 91       	pop	r18
 90c:	0f 90       	pop	r0
 90e:	0b be       	out	0x3b, r0	; 59
 910:	0f 90       	pop	r0
 912:	0f be       	out	0x3f, r0	; 63
 914:	0f 90       	pop	r0
 916:	1f 90       	pop	r1
 918:	18 95       	reti

0000091a <uart1_TransmiteExt>:
 91a:	a8 95       	wdr
 91c:	61 15       	cp	r22, r1
 91e:	71 05       	cpc	r23, r1
 920:	09 f4       	brne	.+2      	; 0x924 <uart1_TransmiteExt+0xa>
 922:	47 c0       	rjmp	.+142    	; 0x9b2 <uart1_TransmiteExt+0x98>
 924:	44 23       	and	r20, r20
 926:	49 f0       	breq	.+18     	; 0x93a <uart1_TransmiteExt+0x20>
 928:	30 91 0f 02 	lds	r19, 0x020F	; 0x80020f <uart1_bTransmite>
 92c:	31 30       	cpi	r19, 0x01	; 1
 92e:	29 f4       	brne	.+10     	; 0x93a <uart1_TransmiteExt+0x20>
 930:	a8 95       	wdr
 932:	30 91 0f 02 	lds	r19, 0x020F	; 0x80020f <uart1_bTransmite>
 936:	31 11       	cpse	r19, r1
 938:	fb cf       	rjmp	.-10     	; 0x930 <uart1_TransmiteExt+0x16>
 93a:	31 e0       	ldi	r19, 0x01	; 1
 93c:	30 93 0f 02 	sts	0x020F, r19	; 0x80020f <uart1_bTransmite>
 940:	90 93 fa 01 	sts	0x01FA, r25	; 0x8001fa <uart1_sTransmis+0x1>
 944:	80 93 f9 01 	sts	0x01F9, r24	; 0x8001f9 <uart1_sTransmis>
 948:	10 92 b6 02 	sts	0x02B6, r1	; 0x8002b6 <uart1_nContorTX+0x1>
 94c:	10 92 b5 02 	sts	0x02B5, r1	; 0x8002b5 <uart1_nContorTX>
 950:	10 92 26 02 	sts	0x0226, r1	; 0x800226 <uart1_bTxOK>
 954:	70 93 f3 01 	sts	0x01F3, r23	; 0x8001f3 <uart1_nLungimeTX+0x1>
 958:	60 93 f2 01 	sts	0x01F2, r22	; 0x8001f2 <uart1_nLungimeTX>
 95c:	30 91 af 02 	lds	r19, 0x02AF	; 0x8002af <uart1_bRS485>
 960:	33 23       	and	r19, r19
 962:	99 f0       	breq	.+38     	; 0x98a <uart1_TransmiteExt+0x70>
 964:	e0 91 b0 02 	lds	r30, 0x02B0	; 0x8002b0 <uart1_Port485Dir>
 968:	f0 91 b1 02 	lds	r31, 0x02B1	; 0x8002b1 <uart1_Port485Dir+0x1>
 96c:	40 81       	ld	r20, Z
 96e:	30 91 20 02 	lds	r19, 0x0220	; 0x800220 <uart1_Port485DirMask>
 972:	30 95       	com	r19
 974:	34 23       	and	r19, r20
 976:	40 91 58 01 	lds	r20, 0x0158	; 0x800158 <uart1_bRS485Inversat>
 97a:	41 11       	cpse	r20, r1
 97c:	03 c0       	rjmp	.+6      	; 0x984 <uart1_TransmiteExt+0x6a>
 97e:	40 91 20 02 	lds	r20, 0x0220	; 0x800220 <uart1_Port485DirMask>
 982:	01 c0       	rjmp	.+2      	; 0x986 <uart1_TransmiteExt+0x6c>
 984:	40 e0       	ldi	r20, 0x00	; 0
 986:	34 2b       	or	r19, r20
 988:	30 83       	st	Z, r19
 98a:	fc 01       	movw	r30, r24
 98c:	80 81       	ld	r24, Z
 98e:	80 93 9c 00 	sts	0x009C, r24	; 0x80009c <__TEXT_REGION_LENGTH__+0x7e009c>
 992:	ea e9       	ldi	r30, 0x9A	; 154
 994:	f0 e0       	ldi	r31, 0x00	; 0
 996:	80 81       	ld	r24, Z
 998:	80 62       	ori	r24, 0x20	; 32
 99a:	80 83       	st	Z, r24
 99c:	22 23       	and	r18, r18
 99e:	49 f0       	breq	.+18     	; 0x9b2 <uart1_TransmiteExt+0x98>
 9a0:	80 91 0f 02 	lds	r24, 0x020F	; 0x80020f <uart1_bTransmite>
 9a4:	81 30       	cpi	r24, 0x01	; 1
 9a6:	29 f4       	brne	.+10     	; 0x9b2 <uart1_TransmiteExt+0x98>
 9a8:	a8 95       	wdr
 9aa:	80 91 0f 02 	lds	r24, 0x020F	; 0x80020f <uart1_bTransmite>
 9ae:	81 11       	cpse	r24, r1
 9b0:	fb cf       	rjmp	.-10     	; 0x9a8 <uart1_TransmiteExt+0x8e>
 9b2:	08 95       	ret

000009b4 <uart1_Transmite>:
 9b4:	20 e0       	ldi	r18, 0x00	; 0
 9b6:	b1 cf       	rjmp	.-158    	; 0x91a <uart1_TransmiteExt>
 9b8:	08 95       	ret

000009ba <uart1_ReceptieOK>:
 9ba:	df 92       	push	r13
 9bc:	ef 92       	push	r14
 9be:	ff 92       	push	r15
 9c0:	0f 93       	push	r16
 9c2:	1f 93       	push	r17
 9c4:	cf 93       	push	r28
 9c6:	df 93       	push	r29
 9c8:	a8 95       	wdr
 9ca:	e0 90 00 02 	lds	r14, 0x0200	; 0x800200 <uart1_nContorRX>
 9ce:	f0 90 01 02 	lds	r15, 0x0201	; 0x800201 <uart1_nContorRX+0x1>
 9d2:	40 91 2b 02 	lds	r20, 0x022B	; 0x80022b <uart1_nIndexUltimTestat>
 9d6:	50 91 2c 02 	lds	r21, 0x022C	; 0x80022c <uart1_nIndexUltimTestat+0x1>
 9da:	4e 15       	cp	r20, r14
 9dc:	5f 05       	cpc	r21, r15
 9de:	08 f0       	brcs	.+2      	; 0x9e2 <uart1_ReceptieOK+0x28>
 9e0:	cf c0       	rjmp	.+414    	; 0xb80 <uart1_ReceptieOK+0x1c6>
 9e2:	60 91 13 02 	lds	r22, 0x0213	; 0x800213 <uart1_sReceptionat>
 9e6:	70 91 14 02 	lds	r23, 0x0214	; 0x800214 <uart1_sReceptionat+0x1>
 9ea:	a0 91 f6 01 	lds	r26, 0x01F6	; 0x8001f6 <uart1_sMultiTermRX>
 9ee:	b0 91 f7 01 	lds	r27, 0x01F7	; 0x8001f7 <uart1_sMultiTermRX+0x1>
 9f2:	00 91 03 02 	lds	r16, 0x0203	; 0x800203 <uart1_sMultiLungimeRX>
 9f6:	10 91 04 02 	lds	r17, 0x0204	; 0x800204 <uart1_sMultiLungimeRX+0x1>
 9fa:	dd 24       	eor	r13, r13
 9fc:	d3 94       	inc	r13
 9fe:	a8 95       	wdr
 a00:	80 91 2a 02 	lds	r24, 0x022A	; 0x80022a <uart1_nCriteriiTestRX>
 a04:	88 23       	and	r24, r24
 a06:	09 f4       	brne	.+2      	; 0xa0a <uart1_ReceptieOK+0x50>
 a08:	69 c0       	rjmp	.+210    	; 0xadc <uart1_ReceptieOK+0x122>
 a0a:	80 91 2a 02 	lds	r24, 0x022A	; 0x80022a <uart1_nCriteriiTestRX>
 a0e:	88 23       	and	r24, r24
 a10:	09 f4       	brne	.+2      	; 0xa14 <uart1_ReceptieOK+0x5a>
 a12:	b0 c0       	rjmp	.+352    	; 0xb74 <uart1_ReceptieOK+0x1ba>
 a14:	80 e0       	ldi	r24, 0x00	; 0
 a16:	a8 95       	wdr
 a18:	fb 01       	movw	r30, r22
 a1a:	e4 0f       	add	r30, r20
 a1c:	f5 1f       	adc	r31, r21
 a1e:	e0 81       	ld	r30, Z
 a20:	28 2f       	mov	r18, r24
 a22:	30 e0       	ldi	r19, 0x00	; 0
 a24:	ed 01       	movw	r28, r26
 a26:	c2 0f       	add	r28, r18
 a28:	d3 1f       	adc	r29, r19
 a2a:	98 81       	ld	r25, Y
 a2c:	e9 13       	cpse	r30, r25
 a2e:	4f c0       	rjmp	.+158    	; 0xace <uart1_ReceptieOK+0x114>
 a30:	22 0f       	add	r18, r18
 a32:	33 1f       	adc	r19, r19
 a34:	f8 01       	movw	r30, r16
 a36:	e2 0f       	add	r30, r18
 a38:	f3 1f       	adc	r31, r19
 a3a:	20 81       	ld	r18, Z
 a3c:	31 81       	ldd	r19, Z+1	; 0x01
 a3e:	23 2b       	or	r18, r19
 a40:	09 f5       	brne	.+66     	; 0xa84 <uart1_ReceptieOK+0xca>
 a42:	4f 5f       	subi	r20, 0xFF	; 255
 a44:	5f 4f       	sbci	r21, 0xFF	; 255
 a46:	50 93 56 01 	sts	0x0156, r21	; 0x800156 <uart1_nLungimeRX+0x1>
 a4a:	40 93 55 01 	sts	0x0155, r20	; 0x800155 <uart1_nLungimeRX>
 a4e:	10 92 02 02 	sts	0x0202, r1	; 0x800202 <uart1_bTimerCounting>
 a52:	80 91 b7 02 	lds	r24, 0x02B7	; 0x8002b7 <uart1_bBlocheazaReceptiaLaFinal>
 a56:	81 30       	cpi	r24, 0x01	; 1
 a58:	11 f4       	brne	.+4      	; 0xa5e <uart1_ReceptieOK+0xa4>
 a5a:	10 92 0b 02 	sts	0x020B, r1	; 0x80020b <uart1_bTimerCarCounting>
 a5e:	80 91 2a 02 	lds	r24, 0x022A	; 0x80022a <uart1_nCriteriiTestRX>
 a62:	d0 92 0c 02 	sts	0x020C, r13	; 0x80020c <uart1_bRxOK>
 a66:	d0 92 ff 01 	sts	0x01FF, r13	; 0x8001ff <uart1_bStareNeprocesata>
 a6a:	20 91 b7 02 	lds	r18, 0x02B7	; 0x8002b7 <uart1_bBlocheazaReceptiaLaFinal>
 a6e:	9d 2d       	mov	r25, r13
 a70:	21 11       	cpse	r18, r1
 a72:	90 e0       	ldi	r25, 0x00	; 0
 a74:	90 93 27 02 	sts	0x0227, r25	; 0x800227 <uart1_bReceptioneaza>
 a78:	10 92 16 02 	sts	0x0216, r1	; 0x800216 <uart1_nContorTimeout+0x1>
 a7c:	10 92 15 02 	sts	0x0215, r1	; 0x800215 <uart1_nContorTimeout>
 a80:	a7 01       	movw	r20, r14
 a82:	25 c0       	rjmp	.+74     	; 0xace <uart1_ReceptieOK+0x114>
 a84:	20 81       	ld	r18, Z
 a86:	31 81       	ldd	r19, Z+1	; 0x01
 a88:	e2 16       	cp	r14, r18
 a8a:	f3 06       	cpc	r15, r19
 a8c:	01 f5       	brne	.+64     	; 0xace <uart1_ReceptieOK+0x114>
 a8e:	4f 5f       	subi	r20, 0xFF	; 255
 a90:	5f 4f       	sbci	r21, 0xFF	; 255
 a92:	50 93 56 01 	sts	0x0156, r21	; 0x800156 <uart1_nLungimeRX+0x1>
 a96:	40 93 55 01 	sts	0x0155, r20	; 0x800155 <uart1_nLungimeRX>
 a9a:	10 92 02 02 	sts	0x0202, r1	; 0x800202 <uart1_bTimerCounting>
 a9e:	80 91 b7 02 	lds	r24, 0x02B7	; 0x8002b7 <uart1_bBlocheazaReceptiaLaFinal>
 aa2:	81 30       	cpi	r24, 0x01	; 1
 aa4:	11 f4       	brne	.+4      	; 0xaaa <uart1_ReceptieOK+0xf0>
 aa6:	10 92 0b 02 	sts	0x020B, r1	; 0x80020b <uart1_bTimerCarCounting>
 aaa:	80 91 2a 02 	lds	r24, 0x022A	; 0x80022a <uart1_nCriteriiTestRX>
 aae:	d0 92 0c 02 	sts	0x020C, r13	; 0x80020c <uart1_bRxOK>
 ab2:	d0 92 ff 01 	sts	0x01FF, r13	; 0x8001ff <uart1_bStareNeprocesata>
 ab6:	20 91 b7 02 	lds	r18, 0x02B7	; 0x8002b7 <uart1_bBlocheazaReceptiaLaFinal>
 aba:	9d 2d       	mov	r25, r13
 abc:	21 11       	cpse	r18, r1
 abe:	90 e0       	ldi	r25, 0x00	; 0
 ac0:	90 93 27 02 	sts	0x0227, r25	; 0x800227 <uart1_bReceptioneaza>
 ac4:	10 92 16 02 	sts	0x0216, r1	; 0x800216 <uart1_nContorTimeout+0x1>
 ac8:	10 92 15 02 	sts	0x0215, r1	; 0x800215 <uart1_nContorTimeout>
 acc:	a7 01       	movw	r20, r14
 ace:	8f 5f       	subi	r24, 0xFF	; 255
 ad0:	90 91 2a 02 	lds	r25, 0x022A	; 0x80022a <uart1_nCriteriiTestRX>
 ad4:	89 17       	cp	r24, r25
 ad6:	08 f4       	brcc	.+2      	; 0xada <uart1_ReceptieOK+0x120>
 ad8:	9e cf       	rjmp	.-196    	; 0xa16 <uart1_ReceptieOK+0x5c>
 ada:	4c c0       	rjmp	.+152    	; 0xb74 <uart1_ReceptieOK+0x1ba>
 adc:	80 91 f8 01 	lds	r24, 0x01F8	; 0x8001f8 <uart1_bRecCuTermRX>
 ae0:	88 23       	and	r24, r24
 ae2:	41 f1       	breq	.+80     	; 0xb34 <uart1_ReceptieOK+0x17a>
 ae4:	fb 01       	movw	r30, r22
 ae6:	e4 0f       	add	r30, r20
 ae8:	f5 1f       	adc	r31, r21
 aea:	90 81       	ld	r25, Z
 aec:	80 91 08 02 	lds	r24, 0x0208	; 0x800208 <uart1_cTermRX>
 af0:	98 13       	cpse	r25, r24
 af2:	40 c0       	rjmp	.+128    	; 0xb74 <uart1_ReceptieOK+0x1ba>
 af4:	ca 01       	movw	r24, r20
 af6:	01 96       	adiw	r24, 0x01	; 1
 af8:	90 93 56 01 	sts	0x0156, r25	; 0x800156 <uart1_nLungimeRX+0x1>
 afc:	80 93 55 01 	sts	0x0155, r24	; 0x800155 <uart1_nLungimeRX>
 b00:	10 92 02 02 	sts	0x0202, r1	; 0x800202 <uart1_bTimerCounting>
 b04:	80 91 b7 02 	lds	r24, 0x02B7	; 0x8002b7 <uart1_bBlocheazaReceptiaLaFinal>
 b08:	81 30       	cpi	r24, 0x01	; 1
 b0a:	11 f4       	brne	.+4      	; 0xb10 <uart1_ReceptieOK+0x156>
 b0c:	10 92 0b 02 	sts	0x020B, r1	; 0x80020b <uart1_bTimerCarCounting>
 b10:	80 91 2a 02 	lds	r24, 0x022A	; 0x80022a <uart1_nCriteriiTestRX>
 b14:	d0 92 0c 02 	sts	0x020C, r13	; 0x80020c <uart1_bRxOK>
 b18:	d0 92 ff 01 	sts	0x01FF, r13	; 0x8001ff <uart1_bStareNeprocesata>
 b1c:	90 91 b7 02 	lds	r25, 0x02B7	; 0x8002b7 <uart1_bBlocheazaReceptiaLaFinal>
 b20:	8d 2d       	mov	r24, r13
 b22:	91 11       	cpse	r25, r1
 b24:	80 e0       	ldi	r24, 0x00	; 0
 b26:	80 93 27 02 	sts	0x0227, r24	; 0x800227 <uart1_bReceptioneaza>
 b2a:	10 92 16 02 	sts	0x0216, r1	; 0x800216 <uart1_nContorTimeout+0x1>
 b2e:	10 92 15 02 	sts	0x0215, r1	; 0x800215 <uart1_nContorTimeout>
 b32:	20 c0       	rjmp	.+64     	; 0xb74 <uart1_ReceptieOK+0x1ba>
 b34:	80 91 55 01 	lds	r24, 0x0155	; 0x800155 <uart1_nLungimeRX>
 b38:	90 91 56 01 	lds	r25, 0x0156	; 0x800156 <uart1_nLungimeRX+0x1>
 b3c:	e8 16       	cp	r14, r24
 b3e:	f9 06       	cpc	r15, r25
 b40:	c8 f0       	brcs	.+50     	; 0xb74 <uart1_ReceptieOK+0x1ba>
 b42:	10 92 02 02 	sts	0x0202, r1	; 0x800202 <uart1_bTimerCounting>
 b46:	80 91 b7 02 	lds	r24, 0x02B7	; 0x8002b7 <uart1_bBlocheazaReceptiaLaFinal>
 b4a:	81 30       	cpi	r24, 0x01	; 1
 b4c:	11 f4       	brne	.+4      	; 0xb52 <uart1_ReceptieOK+0x198>
 b4e:	10 92 0b 02 	sts	0x020B, r1	; 0x80020b <uart1_bTimerCarCounting>
 b52:	80 91 2a 02 	lds	r24, 0x022A	; 0x80022a <uart1_nCriteriiTestRX>
 b56:	d0 92 0c 02 	sts	0x020C, r13	; 0x80020c <uart1_bRxOK>
 b5a:	d0 92 ff 01 	sts	0x01FF, r13	; 0x8001ff <uart1_bStareNeprocesata>
 b5e:	90 91 b7 02 	lds	r25, 0x02B7	; 0x8002b7 <uart1_bBlocheazaReceptiaLaFinal>
 b62:	8d 2d       	mov	r24, r13
 b64:	91 11       	cpse	r25, r1
 b66:	80 e0       	ldi	r24, 0x00	; 0
 b68:	80 93 27 02 	sts	0x0227, r24	; 0x800227 <uart1_bReceptioneaza>
 b6c:	10 92 16 02 	sts	0x0216, r1	; 0x800216 <uart1_nContorTimeout+0x1>
 b70:	10 92 15 02 	sts	0x0215, r1	; 0x800215 <uart1_nContorTimeout>
 b74:	4f 5f       	subi	r20, 0xFF	; 255
 b76:	5f 4f       	sbci	r21, 0xFF	; 255
 b78:	4e 15       	cp	r20, r14
 b7a:	5f 05       	cpc	r21, r15
 b7c:	08 f4       	brcc	.+2      	; 0xb80 <uart1_ReceptieOK+0x1c6>
 b7e:	3f cf       	rjmp	.-386    	; 0x9fe <uart1_ReceptieOK+0x44>
 b80:	f0 92 2c 02 	sts	0x022C, r15	; 0x80022c <uart1_nIndexUltimTestat+0x1>
 b84:	e0 92 2b 02 	sts	0x022B, r14	; 0x80022b <uart1_nIndexUltimTestat>
 b88:	90 91 0c 02 	lds	r25, 0x020C	; 0x80020c <uart1_bRxOK>
 b8c:	81 e0       	ldi	r24, 0x01	; 1
 b8e:	91 11       	cpse	r25, r1
 b90:	01 c0       	rjmp	.+2      	; 0xb94 <uart1_ReceptieOK+0x1da>
 b92:	80 e0       	ldi	r24, 0x00	; 0
 b94:	df 91       	pop	r29
 b96:	cf 91       	pop	r28
 b98:	1f 91       	pop	r17
 b9a:	0f 91       	pop	r16
 b9c:	ff 90       	pop	r15
 b9e:	ef 90       	pop	r14
 ba0:	df 90       	pop	r13
 ba2:	08 95       	ret

00000ba4 <uart1_ReceptieTermTX>:
 ba4:	0f 93       	push	r16
 ba6:	a8 95       	wdr
 ba8:	31 e0       	ldi	r19, 0x01	; 1
 baa:	30 93 1f 02 	sts	0x021F, r19	; 0x80021f <uart1_bSetareParametri>
 bae:	90 93 14 02 	sts	0x0214, r25	; 0x800214 <uart1_sReceptionat+0x1>
 bb2:	80 93 13 02 	sts	0x0213, r24	; 0x800213 <uart1_sReceptionat>
 bb6:	10 92 56 01 	sts	0x0156, r1	; 0x800156 <uart1_nLungimeRX+0x1>
 bba:	10 92 55 01 	sts	0x0155, r1	; 0x800155 <uart1_nLungimeRX>
 bbe:	60 93 08 02 	sts	0x0208, r22	; 0x800208 <uart1_cTermRX>
 bc2:	10 92 2a 02 	sts	0x022A, r1	; 0x80022a <uart1_nCriteriiTestRX>
 bc6:	22 23       	and	r18, r18
 bc8:	21 f0       	breq	.+8      	; 0xbd2 <uart1_ReceptieTermTX+0x2e>
 bca:	10 92 01 02 	sts	0x0201, r1	; 0x800201 <uart1_nContorRX+0x1>
 bce:	10 92 00 02 	sts	0x0200, r1	; 0x800200 <uart1_nContorRX>
 bd2:	50 93 eb 01 	sts	0x01EB, r21	; 0x8001eb <uart1_nLungMaxBuferRX+0x1>
 bd6:	40 93 ea 01 	sts	0x01EA, r20	; 0x8001ea <uart1_nLungMaxBuferRX>
 bda:	10 92 0c 02 	sts	0x020C, r1	; 0x80020c <uart1_bRxOK>
 bde:	10 92 ff 01 	sts	0x01FF, r1	; 0x8001ff <uart1_bStareNeprocesata>
 be2:	81 e0       	ldi	r24, 0x01	; 1
 be4:	80 93 f8 01 	sts	0x01F8, r24	; 0x8001f8 <uart1_bRecCuTermRX>
 be8:	10 92 57 01 	sts	0x0157, r1	; 0x800157 <uart1_bRXBufferLimit>
 bec:	10 92 2c 02 	sts	0x022C, r1	; 0x80022c <uart1_nIndexUltimTestat+0x1>
 bf0:	10 92 2b 02 	sts	0x022B, r1	; 0x80022b <uart1_nIndexUltimTestat>
 bf4:	10 92 02 02 	sts	0x0202, r1	; 0x800202 <uart1_bTimerCounting>
 bf8:	10 92 b4 02 	sts	0x02B4, r1	; 0x8002b4 <uart1_bTimeout>
 bfc:	10 92 16 02 	sts	0x0216, r1	; 0x800216 <uart1_nContorTimeout+0x1>
 c00:	10 92 15 02 	sts	0x0215, r1	; 0x800215 <uart1_nContorTimeout>
 c04:	80 93 02 02 	sts	0x0202, r24	; 0x800202 <uart1_bTimerCounting>
 c08:	80 93 27 02 	sts	0x0227, r24	; 0x800227 <uart1_bReceptioneaza>
 c0c:	00 93 b7 02 	sts	0x02B7, r16	; 0x8002b7 <uart1_bBlocheazaReceptiaLaFinal>
 c10:	10 92 1f 02 	sts	0x021F, r1	; 0x80021f <uart1_bSetareParametri>
 c14:	0f 91       	pop	r16
 c16:	08 95       	ret

00000c18 <memcpy>:
 c18:	fb 01       	movw	r30, r22
 c1a:	dc 01       	movw	r26, r24
 c1c:	02 c0       	rjmp	.+4      	; 0xc22 <memcpy+0xa>
 c1e:	01 90       	ld	r0, Z+
 c20:	0d 92       	st	X+, r0
 c22:	41 50       	subi	r20, 0x01	; 1
 c24:	50 40       	sbci	r21, 0x00	; 0
 c26:	d8 f7       	brcc	.-10     	; 0xc1e <memcpy+0x6>
 c28:	08 95       	ret

00000c2a <__itoa_ncheck>:
 c2a:	bb 27       	eor	r27, r27
 c2c:	4a 30       	cpi	r20, 0x0A	; 10
 c2e:	31 f4       	brne	.+12     	; 0xc3c <__itoa_ncheck+0x12>
 c30:	99 23       	and	r25, r25
 c32:	22 f4       	brpl	.+8      	; 0xc3c <__itoa_ncheck+0x12>
 c34:	bd e2       	ldi	r27, 0x2D	; 45
 c36:	90 95       	com	r25
 c38:	81 95       	neg	r24
 c3a:	9f 4f       	sbci	r25, 0xFF	; 255
 c3c:	01 c0       	rjmp	.+2      	; 0xc40 <__utoa_common>

00000c3e <__utoa_ncheck>:
 c3e:	bb 27       	eor	r27, r27

00000c40 <__utoa_common>:
 c40:	fb 01       	movw	r30, r22
 c42:	55 27       	eor	r21, r21
 c44:	aa 27       	eor	r26, r26
 c46:	88 0f       	add	r24, r24
 c48:	99 1f       	adc	r25, r25
 c4a:	aa 1f       	adc	r26, r26
 c4c:	a4 17       	cp	r26, r20
 c4e:	10 f0       	brcs	.+4      	; 0xc54 <__utoa_common+0x14>
 c50:	a4 1b       	sub	r26, r20
 c52:	83 95       	inc	r24
 c54:	50 51       	subi	r21, 0x10	; 16
 c56:	b9 f7       	brne	.-18     	; 0xc46 <__utoa_common+0x6>
 c58:	a0 5d       	subi	r26, 0xD0	; 208
 c5a:	aa 33       	cpi	r26, 0x3A	; 58
 c5c:	08 f0       	brcs	.+2      	; 0xc60 <__utoa_common+0x20>
 c5e:	a9 5d       	subi	r26, 0xD9	; 217
 c60:	a1 93       	st	Z+, r26
 c62:	00 97       	sbiw	r24, 0x00	; 0
 c64:	79 f7       	brne	.-34     	; 0xc44 <__utoa_common+0x4>
 c66:	b1 11       	cpse	r27, r1
 c68:	b1 93       	st	Z+, r27
 c6a:	11 92       	st	Z+, r1
 c6c:	cb 01       	movw	r24, r22
 c6e:	00 c0       	rjmp	.+0      	; 0xc70 <strrev>

00000c70 <strrev>:
 c70:	dc 01       	movw	r26, r24
 c72:	fc 01       	movw	r30, r24
 c74:	67 2f       	mov	r22, r23
 c76:	71 91       	ld	r23, Z+
 c78:	77 23       	and	r23, r23
 c7a:	e1 f7       	brne	.-8      	; 0xc74 <strrev+0x4>
 c7c:	32 97       	sbiw	r30, 0x02	; 2
 c7e:	04 c0       	rjmp	.+8      	; 0xc88 <strrev+0x18>
 c80:	7c 91       	ld	r23, X
 c82:	6d 93       	st	X+, r22
 c84:	70 83       	st	Z, r23
 c86:	62 91       	ld	r22, -Z
 c88:	ae 17       	cp	r26, r30
 c8a:	bf 07       	cpc	r27, r31
 c8c:	c8 f3       	brcs	.-14     	; 0xc80 <strrev+0x10>
 c8e:	08 95       	ret

00000c90 <_exit>:
 c90:	f8 94       	cli

00000c92 <__stop_program>:
 c92:	ff cf       	rjmp	.-2      	; 0xc92 <__stop_program>
